ARM GAS  /var/folders/k_/d4dbklhx7q1fs9lh20k9kt840000gn/T//ccAshBJE.s 			page 1


   1              		.cpu cortex-m4
   2              		.eabi_attribute 27, 1
   3              		.eabi_attribute 28, 1
   4              		.eabi_attribute 20, 1
   5              		.eabi_attribute 21, 1
   6              		.eabi_attribute 23, 3
   7              		.eabi_attribute 24, 1
   8              		.eabi_attribute 25, 1
   9              		.eabi_attribute 26, 1
  10              		.eabi_attribute 30, 1
  11              		.eabi_attribute 34, 1
  12              		.eabi_attribute 18, 4
  13              		.file	"flash_firmware.c"
  14              		.text
  15              	.Ltext0:
  16              		.cfi_sections	.debug_frame
  17              		.section	.text.save_rec_fw,"ax",%progbits
  18              		.align	1
  19              		.global	save_rec_fw
  20              		.syntax unified
  21              		.thumb
  22              		.thumb_func
  23              		.fpu fpv4-sp-d16
  25              	save_rec_fw:
  26              	.LFB133:
  27              		.file 1 "Src/flash_firmware.c"
   1:Src/flash_firmware.c **** #include "flash_firmware.h"
   2:Src/flash_firmware.c **** 
   3:Src/flash_firmware.c **** void save_rec_fw(char *data_to_flash, uint32_t len, uint32_t address, uint8_t first_package) {
  28              		.loc 1 3 0
  29              		.cfi_startproc
  30              		@ args = 0, pretend = 0, frame = 24
  31              		@ frame_needed = 0, uses_anonymous_args = 0
  32              	.LVL0:
  33 0000 F0B5     		push	{r4, r5, r6, r7, lr}
  34              	.LCFI0:
  35              		.cfi_def_cfa_offset 20
  36              		.cfi_offset 4, -20
  37              		.cfi_offset 5, -16
  38              		.cfi_offset 6, -12
  39              		.cfi_offset 7, -8
  40              		.cfi_offset 14, -4
  41 0002 87B0     		sub	sp, sp, #28
  42              	.LCFI1:
  43              		.cfi_def_cfa_offset 48
  44 0004 0746     		mov	r7, r0
  45 0006 1546     		mov	r5, r2
   4:Src/flash_firmware.c **** 
   5:Src/flash_firmware.c ****     volatile HAL_StatusTypeDef flash_status;
   6:Src/flash_firmware.c **** 
   7:Src/flash_firmware.c ****     if (first_package) {
  46              		.loc 1 7 0
  47 0008 4BB9     		cbnz	r3, .L9
  48              	.LVL1:
  49              	.L2:
   8:Src/flash_firmware.c ****         FLASH_EraseInitTypeDef EraseInitStruct;
   9:Src/flash_firmware.c ****         EraseInitStruct.TypeErase   = FLASH_TYPEERASE_PAGES;
ARM GAS  /var/folders/k_/d4dbklhx7q1fs9lh20k9kt840000gn/T//ccAshBJE.s 			page 2


  10:Src/flash_firmware.c ****         EraseInitStruct.Banks       = FLASH_BANK_1;
  11:Src/flash_firmware.c ****         EraseInitStruct.Page        = 16;
  12:Src/flash_firmware.c ****         EraseInitStruct.NbPages     = 240;
  13:Src/flash_firmware.c **** 
  14:Src/flash_firmware.c ****         /* Unlock the Flash to enable the flash control register access *************/
  15:Src/flash_firmware.c ****         HAL_FLASH_Unlock();
  16:Src/flash_firmware.c **** 
  17:Src/flash_firmware.c ****         uint32_t PageError;
  18:Src/flash_firmware.c ****         flash_status = HAL_FLASHEx_Erase(&EraseInitStruct, &PageError);
  19:Src/flash_firmware.c ****         HAL_UART_Transmit(&huart2, (uint8_t*)"Erased\r\n", 8, 100);
  20:Src/flash_firmware.c ****     }
  21:Src/flash_firmware.c **** 
  22:Src/flash_firmware.c ****     const char **fragments;
  23:Src/flash_firmware.c ****     fragments = malloc(sizeof(*fragments) * 4);
  50              		.loc 1 23 0
  51 000a 1020     		movs	r0, #16
  52 000c FFF7FEFF 		bl	malloc
  53              	.LVL2:
  54 0010 0646     		mov	r6, r0
  55              	.LVL3:
  24:Src/flash_firmware.c **** 
  25:Src/flash_firmware.c ****     if (flash_status == HAL_OK) {
  56              		.loc 1 25 0
  57 0012 9DF81730 		ldrb	r3, [sp, #23]	@ zero_extendqisi2
  58 0016 002B     		cmp	r3, #0
  59 0018 39D1     		bne	.L4
  60              	.LBB2:
  26:Src/flash_firmware.c ****         for (int i = 0; i < 8; i++) {
  61              		.loc 1 26 0
  62 001a 0024     		movs	r4, #0
  63 001c 17E0     		b	.L3
  64              	.LVL4:
  65              	.L9:
  66              	.LBE2:
  67              	.LBB3:
   9:Src/flash_firmware.c ****         EraseInitStruct.Banks       = FLASH_BANK_1;
  68              		.loc 1 9 0
  69 001e 0023     		movs	r3, #0
  70              	.LVL5:
  71 0020 0193     		str	r3, [sp, #4]
  10:Src/flash_firmware.c ****         EraseInitStruct.Page        = 16;
  72              		.loc 1 10 0
  73 0022 0123     		movs	r3, #1
  74 0024 0293     		str	r3, [sp, #8]
  11:Src/flash_firmware.c ****         EraseInitStruct.NbPages     = 240;
  75              		.loc 1 11 0
  76 0026 1023     		movs	r3, #16
  77 0028 0393     		str	r3, [sp, #12]
  12:Src/flash_firmware.c **** 
  78              		.loc 1 12 0
  79 002a F023     		movs	r3, #240
  80 002c 0493     		str	r3, [sp, #16]
  15:Src/flash_firmware.c **** 
  81              		.loc 1 15 0
  82 002e FFF7FEFF 		bl	HAL_FLASH_Unlock
  83              	.LVL6:
  18:Src/flash_firmware.c ****         HAL_UART_Transmit(&huart2, (uint8_t*)"Erased\r\n", 8, 100);
ARM GAS  /var/folders/k_/d4dbklhx7q1fs9lh20k9kt840000gn/T//ccAshBJE.s 			page 3


  84              		.loc 1 18 0
  85 0032 6946     		mov	r1, sp
  86 0034 01A8     		add	r0, sp, #4
  87 0036 FFF7FEFF 		bl	HAL_FLASHEx_Erase
  88              	.LVL7:
  89 003a 8DF81700 		strb	r0, [sp, #23]
  19:Src/flash_firmware.c ****     }
  90              		.loc 1 19 0
  91 003e 6423     		movs	r3, #100
  92 0040 0822     		movs	r2, #8
  93 0042 1549     		ldr	r1, .L10
  94 0044 1548     		ldr	r0, .L10+4
  95 0046 FFF7FEFF 		bl	HAL_UART_Transmit
  96              	.LVL8:
  97 004a DEE7     		b	.L2
  98              	.LVL9:
  99              	.L5:
 100              	.LBE3:
 101              	.LBB4:
 102              		.loc 1 26 0 discriminator 2
 103 004c 0134     		adds	r4, r4, #1
 104              	.LVL10:
 105              	.L3:
 106              		.loc 1 26 0 is_stmt 0 discriminator 1
 107 004e 072C     		cmp	r4, #7
 108 0050 1DDC     		bgt	.L4
  27:Src/flash_firmware.c ****             fragments[i] = strndup(data_to_flash + 8 * i, 8);
 109              		.loc 1 27 0 is_stmt 1
 110 0052 0821     		movs	r1, #8
 111 0054 07EBC400 		add	r0, r7, r4, lsl #3
 112 0058 FFF7FEFF 		bl	strndup
 113              	.LVL11:
 114 005c 46F82400 		str	r0, [r6, r4, lsl #2]
  28:Src/flash_firmware.c ****             flash_status = HAL_FLASH_Program(FLASH_TYPEPROGRAM_DOUBLEWORD, address, *(uint64_t*)fra
 115              		.loc 1 28 0
 116 0060 D0E90023 		ldrd	r2, [r0]
 117 0064 2946     		mov	r1, r5
 118 0066 0020     		movs	r0, #0
 119 0068 FFF7FEFF 		bl	HAL_FLASH_Program
 120              	.LVL12:
 121 006c 8DF81700 		strb	r0, [sp, #23]
  29:Src/flash_firmware.c ****             HAL_UART_Transmit(&huart2, (uint8_t*)"Progged\r\n", 9, 100);
 122              		.loc 1 29 0
 123 0070 6423     		movs	r3, #100
 124 0072 0922     		movs	r2, #9
 125 0074 0A49     		ldr	r1, .L10+8
 126 0076 0948     		ldr	r0, .L10+4
 127 0078 FFF7FEFF 		bl	HAL_UART_Transmit
 128              	.LVL13:
  30:Src/flash_firmware.c ****             if (flash_status != HAL_OK) {
 129              		.loc 1 30 0
 130 007c 9DF81730 		ldrb	r3, [sp, #23]	@ zero_extendqisi2
 131 0080 2BB9     		cbnz	r3, .L4
  31:Src/flash_firmware.c ****                 break;
  32:Src/flash_firmware.c ****             }
  33:Src/flash_firmware.c ****             else if (flash_status == HAL_OK) {
 132              		.loc 1 33 0
ARM GAS  /var/folders/k_/d4dbklhx7q1fs9lh20k9kt840000gn/T//ccAshBJE.s 			page 4


 133 0082 9DF81730 		ldrb	r3, [sp, #23]	@ zero_extendqisi2
 134 0086 002B     		cmp	r3, #0
 135 0088 E0D1     		bne	.L5
  34:Src/flash_firmware.c ****                 address += 4;
 136              		.loc 1 34 0
 137 008a 0435     		adds	r5, r5, #4
 138              	.LVL14:
 139 008c DEE7     		b	.L5
 140              	.LVL15:
 141              	.L4:
 142              	.LBE4:
  35:Src/flash_firmware.c ****             }
  36:Src/flash_firmware.c ****         }
  37:Src/flash_firmware.c ****     }
  38:Src/flash_firmware.c ****     HAL_FLASH_Lock();
 143              		.loc 1 38 0
 144 008e FFF7FEFF 		bl	HAL_FLASH_Lock
 145              	.LVL16:
  39:Src/flash_firmware.c **** }
 146              		.loc 1 39 0
 147 0092 07B0     		add	sp, sp, #28
 148              	.LCFI2:
 149              		.cfi_def_cfa_offset 20
 150              		@ sp needed
 151 0094 F0BD     		pop	{r4, r5, r6, r7, pc}
 152              	.LVL17:
 153              	.L11:
 154 0096 00BF     		.align	2
 155              	.L10:
 156 0098 00000000 		.word	.LC0
 157 009c 00000000 		.word	huart2
 158 00a0 0C000000 		.word	.LC1
 159              		.cfi_endproc
 160              	.LFE133:
 162              		.section	.rodata.save_rec_fw.str1.4,"aMS",%progbits,1
 163              		.align	2
 164              	.LC0:
 165 0000 45726173 		.ascii	"Erased\015\012\000"
 165      65640D0A 
 165      00
 166 0009 000000   		.space	3
 167              	.LC1:
 168 000c 50726F67 		.ascii	"Progged\015\012\000"
 168      6765640D 
 168      0A00
 169              		.text
 170              	.Letext0:
 171              		.file 2 "/usr/local/Cellar/gcc-arm-none-eabi/20180627/arm-none-eabi/include/machine/_default_types
 172              		.file 3 "/usr/local/Cellar/gcc-arm-none-eabi/20180627/arm-none-eabi/include/sys/lock.h"
 173              		.file 4 "/usr/local/Cellar/gcc-arm-none-eabi/20180627/arm-none-eabi/include/sys/_types.h"
 174              		.file 5 "/usr/local/Cellar/gcc-arm-none-eabi/20180627/lib/gcc/arm-none-eabi/7.3.1/include/stddef.h
 175              		.file 6 "/usr/local/Cellar/gcc-arm-none-eabi/20180627/arm-none-eabi/include/sys/reent.h"
 176              		.file 7 "/usr/local/Cellar/gcc-arm-none-eabi/20180627/arm-none-eabi/include/sys/_stdint.h"
 177              		.file 8 "Drivers/CMSIS/Include/core_cm4.h"
 178              		.file 9 "Drivers/CMSIS/Device/ST/STM32L4xx/Include/system_stm32l4xx.h"
 179              		.file 10 "Drivers/CMSIS/Device/ST/STM32L4xx/Include/stm32l476xx.h"
 180              		.file 11 "Drivers/STM32L4xx_HAL_Driver/Inc/stm32l4xx_hal_def.h"
ARM GAS  /var/folders/k_/d4dbklhx7q1fs9lh20k9kt840000gn/T//ccAshBJE.s 			page 5


 181              		.file 12 "Drivers/STM32L4xx_HAL_Driver/Inc/stm32l4xx_hal_dma.h"
 182              		.file 13 "Drivers/STM32L4xx_HAL_Driver/Inc/stm32l4xx_hal_flash.h"
 183              		.file 14 "Drivers/STM32L4xx_HAL_Driver/Inc/stm32l4xx_hal_uart.h"
 184              		.file 15 "Drivers/STM32L4xx_HAL_Driver/Inc/stm32l4xx_hal.h"
 185              		.file 16 "Inc/main.h"
 186              		.file 17 "/usr/local/Cellar/gcc-arm-none-eabi/20180627/arm-none-eabi/include/stdlib.h"
 187              		.file 18 "Drivers/STM32L4xx_HAL_Driver/Inc/stm32l4xx_hal_flash_ex.h"
 188              		.file 19 "/usr/local/Cellar/gcc-arm-none-eabi/20180627/arm-none-eabi/include/string.h"
ARM GAS  /var/folders/k_/d4dbklhx7q1fs9lh20k9kt840000gn/T//ccAshBJE.s 			page 6


DEFINED SYMBOLS
                            *ABS*:0000000000000000 flash_firmware.c
/var/folders/k_/d4dbklhx7q1fs9lh20k9kt840000gn/T//ccAshBJE.s:18     .text.save_rec_fw:0000000000000000 $t
/var/folders/k_/d4dbklhx7q1fs9lh20k9kt840000gn/T//ccAshBJE.s:25     .text.save_rec_fw:0000000000000000 save_rec_fw
/var/folders/k_/d4dbklhx7q1fs9lh20k9kt840000gn/T//ccAshBJE.s:156    .text.save_rec_fw:0000000000000098 $d
/var/folders/k_/d4dbklhx7q1fs9lh20k9kt840000gn/T//ccAshBJE.s:163    .rodata.save_rec_fw.str1.4:0000000000000000 $d

UNDEFINED SYMBOLS
malloc
HAL_FLASH_Unlock
HAL_FLASHEx_Erase
HAL_UART_Transmit
strndup
HAL_FLASH_Program
HAL_FLASH_Lock
huart2
