ARM GAS  /var/folders/k_/d4dbklhx7q1fs9lh20k9kt840000gn/T//ccmJo6fc.s 			page 1


   1              		.cpu cortex-m4
   2              		.eabi_attribute 27, 1
   3              		.eabi_attribute 28, 1
   4              		.eabi_attribute 20, 1
   5              		.eabi_attribute 21, 1
   6              		.eabi_attribute 23, 3
   7              		.eabi_attribute 24, 1
   8              		.eabi_attribute 25, 1
   9              		.eabi_attribute 26, 1
  10              		.eabi_attribute 30, 1
  11              		.eabi_attribute 34, 1
  12              		.eabi_attribute 18, 4
  13              		.file	"stm32l4xx_hal.c"
  14              		.text
  15              	.Ltext0:
  16              		.cfi_sections	.debug_frame
  17              		.section	.text.HAL_MspInit,"ax",%progbits
  18              		.align	1
  19              		.weak	HAL_MspInit
  20              		.syntax unified
  21              		.thumb
  22              		.thumb_func
  23              		.fpu fpv4-sp-d16
  25              	HAL_MspInit:
  26              	.LFB132:
  27              		.file 1 "Drivers/STM32L4xx_HAL_Driver/Src/stm32l4xx_hal.c"
   1:Drivers/STM32L4xx_HAL_Driver/Src/stm32l4xx_hal.c **** /**
   2:Drivers/STM32L4xx_HAL_Driver/Src/stm32l4xx_hal.c ****   ******************************************************************************
   3:Drivers/STM32L4xx_HAL_Driver/Src/stm32l4xx_hal.c ****   * @file    stm32l4xx_hal.c
   4:Drivers/STM32L4xx_HAL_Driver/Src/stm32l4xx_hal.c ****   * @author  MCD Application Team
   5:Drivers/STM32L4xx_HAL_Driver/Src/stm32l4xx_hal.c ****   * @brief   HAL module driver.
   6:Drivers/STM32L4xx_HAL_Driver/Src/stm32l4xx_hal.c ****   *          This is the common part of the HAL initialization
   7:Drivers/STM32L4xx_HAL_Driver/Src/stm32l4xx_hal.c ****   *
   8:Drivers/STM32L4xx_HAL_Driver/Src/stm32l4xx_hal.c ****   @verbatim
   9:Drivers/STM32L4xx_HAL_Driver/Src/stm32l4xx_hal.c ****   ==============================================================================
  10:Drivers/STM32L4xx_HAL_Driver/Src/stm32l4xx_hal.c ****                      ##### How to use this driver #####
  11:Drivers/STM32L4xx_HAL_Driver/Src/stm32l4xx_hal.c ****   ==============================================================================
  12:Drivers/STM32L4xx_HAL_Driver/Src/stm32l4xx_hal.c ****     [..]
  13:Drivers/STM32L4xx_HAL_Driver/Src/stm32l4xx_hal.c ****     The common HAL driver contains a set of generic and common APIs that can be
  14:Drivers/STM32L4xx_HAL_Driver/Src/stm32l4xx_hal.c ****     used by the PPP peripheral drivers and the user to start using the HAL.
  15:Drivers/STM32L4xx_HAL_Driver/Src/stm32l4xx_hal.c ****     [..]
  16:Drivers/STM32L4xx_HAL_Driver/Src/stm32l4xx_hal.c ****     The HAL contains two APIs' categories:
  17:Drivers/STM32L4xx_HAL_Driver/Src/stm32l4xx_hal.c ****          (+) Common HAL APIs
  18:Drivers/STM32L4xx_HAL_Driver/Src/stm32l4xx_hal.c ****          (+) Services HAL APIs
  19:Drivers/STM32L4xx_HAL_Driver/Src/stm32l4xx_hal.c **** 
  20:Drivers/STM32L4xx_HAL_Driver/Src/stm32l4xx_hal.c ****   @endverbatim
  21:Drivers/STM32L4xx_HAL_Driver/Src/stm32l4xx_hal.c ****   ******************************************************************************
  22:Drivers/STM32L4xx_HAL_Driver/Src/stm32l4xx_hal.c ****   * @attention
  23:Drivers/STM32L4xx_HAL_Driver/Src/stm32l4xx_hal.c ****   *
  24:Drivers/STM32L4xx_HAL_Driver/Src/stm32l4xx_hal.c ****   * <h2><center>&copy; Copyright (c) 2017 STMicroelectronics.
  25:Drivers/STM32L4xx_HAL_Driver/Src/stm32l4xx_hal.c ****   * All rights reserved.</center></h2>
  26:Drivers/STM32L4xx_HAL_Driver/Src/stm32l4xx_hal.c ****   *
  27:Drivers/STM32L4xx_HAL_Driver/Src/stm32l4xx_hal.c ****   * This software component is licensed by ST under BSD 3-Clause license,
  28:Drivers/STM32L4xx_HAL_Driver/Src/stm32l4xx_hal.c ****   * the "License"; You may not use this file except in compliance with the
  29:Drivers/STM32L4xx_HAL_Driver/Src/stm32l4xx_hal.c ****   * License. You may obtain a copy of the License at:
  30:Drivers/STM32L4xx_HAL_Driver/Src/stm32l4xx_hal.c ****   *                        opensource.org/licenses/BSD-3-Clause
  31:Drivers/STM32L4xx_HAL_Driver/Src/stm32l4xx_hal.c ****   *
ARM GAS  /var/folders/k_/d4dbklhx7q1fs9lh20k9kt840000gn/T//ccmJo6fc.s 			page 2


  32:Drivers/STM32L4xx_HAL_Driver/Src/stm32l4xx_hal.c ****   ******************************************************************************
  33:Drivers/STM32L4xx_HAL_Driver/Src/stm32l4xx_hal.c ****   */
  34:Drivers/STM32L4xx_HAL_Driver/Src/stm32l4xx_hal.c **** 
  35:Drivers/STM32L4xx_HAL_Driver/Src/stm32l4xx_hal.c **** /* Includes ------------------------------------------------------------------*/
  36:Drivers/STM32L4xx_HAL_Driver/Src/stm32l4xx_hal.c **** #include "stm32l4xx_hal.h"
  37:Drivers/STM32L4xx_HAL_Driver/Src/stm32l4xx_hal.c **** 
  38:Drivers/STM32L4xx_HAL_Driver/Src/stm32l4xx_hal.c **** /** @addtogroup STM32L4xx_HAL_Driver
  39:Drivers/STM32L4xx_HAL_Driver/Src/stm32l4xx_hal.c ****   * @{
  40:Drivers/STM32L4xx_HAL_Driver/Src/stm32l4xx_hal.c ****   */
  41:Drivers/STM32L4xx_HAL_Driver/Src/stm32l4xx_hal.c **** 
  42:Drivers/STM32L4xx_HAL_Driver/Src/stm32l4xx_hal.c **** /** @defgroup HAL HAL
  43:Drivers/STM32L4xx_HAL_Driver/Src/stm32l4xx_hal.c ****   * @brief HAL module driver
  44:Drivers/STM32L4xx_HAL_Driver/Src/stm32l4xx_hal.c ****   * @{
  45:Drivers/STM32L4xx_HAL_Driver/Src/stm32l4xx_hal.c ****   */
  46:Drivers/STM32L4xx_HAL_Driver/Src/stm32l4xx_hal.c **** 
  47:Drivers/STM32L4xx_HAL_Driver/Src/stm32l4xx_hal.c **** #ifdef HAL_MODULE_ENABLED
  48:Drivers/STM32L4xx_HAL_Driver/Src/stm32l4xx_hal.c **** 
  49:Drivers/STM32L4xx_HAL_Driver/Src/stm32l4xx_hal.c **** /* Private typedef -----------------------------------------------------------*/
  50:Drivers/STM32L4xx_HAL_Driver/Src/stm32l4xx_hal.c **** /* Private define ------------------------------------------------------------*/
  51:Drivers/STM32L4xx_HAL_Driver/Src/stm32l4xx_hal.c **** /**
  52:Drivers/STM32L4xx_HAL_Driver/Src/stm32l4xx_hal.c ****  * @brief STM32L4xx HAL Driver version number
  53:Drivers/STM32L4xx_HAL_Driver/Src/stm32l4xx_hal.c ****    */
  54:Drivers/STM32L4xx_HAL_Driver/Src/stm32l4xx_hal.c **** #define STM32L4XX_HAL_VERSION_MAIN   (0x01U) /*!< [31:24] main version */
  55:Drivers/STM32L4xx_HAL_Driver/Src/stm32l4xx_hal.c **** #define STM32L4XX_HAL_VERSION_SUB1   (0x0BU) /*!< [23:16] sub1 version */
  56:Drivers/STM32L4xx_HAL_Driver/Src/stm32l4xx_hal.c **** #define STM32L4XX_HAL_VERSION_SUB2   (0x01U) /*!< [15:8]  sub2 version */
  57:Drivers/STM32L4xx_HAL_Driver/Src/stm32l4xx_hal.c **** #define STM32L4XX_HAL_VERSION_RC     (0x00U) /*!< [7:0]  release candidate */
  58:Drivers/STM32L4xx_HAL_Driver/Src/stm32l4xx_hal.c **** #define STM32L4XX_HAL_VERSION        ((STM32L4XX_HAL_VERSION_MAIN  << 24U)\
  59:Drivers/STM32L4xx_HAL_Driver/Src/stm32l4xx_hal.c ****                                       |(STM32L4XX_HAL_VERSION_SUB1 << 16U)\
  60:Drivers/STM32L4xx_HAL_Driver/Src/stm32l4xx_hal.c ****                                       |(STM32L4XX_HAL_VERSION_SUB2 << 8U)\
  61:Drivers/STM32L4xx_HAL_Driver/Src/stm32l4xx_hal.c ****                                       |(STM32L4XX_HAL_VERSION_RC))
  62:Drivers/STM32L4xx_HAL_Driver/Src/stm32l4xx_hal.c **** 
  63:Drivers/STM32L4xx_HAL_Driver/Src/stm32l4xx_hal.c **** #if defined(VREFBUF)
  64:Drivers/STM32L4xx_HAL_Driver/Src/stm32l4xx_hal.c **** #define VREFBUF_TIMEOUT_VALUE     10U   /* 10 ms (to be confirmed) */
  65:Drivers/STM32L4xx_HAL_Driver/Src/stm32l4xx_hal.c **** #endif /* VREFBUF */
  66:Drivers/STM32L4xx_HAL_Driver/Src/stm32l4xx_hal.c **** 
  67:Drivers/STM32L4xx_HAL_Driver/Src/stm32l4xx_hal.c **** /* ------------ SYSCFG registers bit address in the alias region ------------ */
  68:Drivers/STM32L4xx_HAL_Driver/Src/stm32l4xx_hal.c **** #define SYSCFG_OFFSET             (SYSCFG_BASE - PERIPH_BASE)
  69:Drivers/STM32L4xx_HAL_Driver/Src/stm32l4xx_hal.c **** /* ---  MEMRMP Register ---*/
  70:Drivers/STM32L4xx_HAL_Driver/Src/stm32l4xx_hal.c **** /* Alias word address of FB_MODE bit */
  71:Drivers/STM32L4xx_HAL_Driver/Src/stm32l4xx_hal.c **** #define MEMRMP_OFFSET             SYSCFG_OFFSET
  72:Drivers/STM32L4xx_HAL_Driver/Src/stm32l4xx_hal.c **** #define FB_MODE_BitNumber         8U
  73:Drivers/STM32L4xx_HAL_Driver/Src/stm32l4xx_hal.c **** #define FB_MODE_BB                (PERIPH_BB_BASE + (MEMRMP_OFFSET * 32U) + (FB_MODE_BitNumber * 4U
  74:Drivers/STM32L4xx_HAL_Driver/Src/stm32l4xx_hal.c **** 
  75:Drivers/STM32L4xx_HAL_Driver/Src/stm32l4xx_hal.c **** /* --- SCSR Register ---*/
  76:Drivers/STM32L4xx_HAL_Driver/Src/stm32l4xx_hal.c **** /* Alias word address of SRAM2ER bit */
  77:Drivers/STM32L4xx_HAL_Driver/Src/stm32l4xx_hal.c **** #define SCSR_OFFSET               (SYSCFG_OFFSET + 0x18U)
  78:Drivers/STM32L4xx_HAL_Driver/Src/stm32l4xx_hal.c **** #define BRER_BitNumber            0U
  79:Drivers/STM32L4xx_HAL_Driver/Src/stm32l4xx_hal.c **** #define SCSR_SRAM2ER_BB           (PERIPH_BB_BASE + (SCSR_OFFSET * 32U) + (BRER_BitNumber * 4U))
  80:Drivers/STM32L4xx_HAL_Driver/Src/stm32l4xx_hal.c **** 
  81:Drivers/STM32L4xx_HAL_Driver/Src/stm32l4xx_hal.c **** /* Private macro -------------------------------------------------------------*/
  82:Drivers/STM32L4xx_HAL_Driver/Src/stm32l4xx_hal.c **** /* Private variables ---------------------------------------------------------*/
  83:Drivers/STM32L4xx_HAL_Driver/Src/stm32l4xx_hal.c **** /* Private function prototypes -----------------------------------------------*/
  84:Drivers/STM32L4xx_HAL_Driver/Src/stm32l4xx_hal.c **** 
  85:Drivers/STM32L4xx_HAL_Driver/Src/stm32l4xx_hal.c **** /* Exported variables --------------------------------------------------------*/
  86:Drivers/STM32L4xx_HAL_Driver/Src/stm32l4xx_hal.c **** 
  87:Drivers/STM32L4xx_HAL_Driver/Src/stm32l4xx_hal.c **** /** @defgroup HAL_Exported_Variables HAL Exported Variables
  88:Drivers/STM32L4xx_HAL_Driver/Src/stm32l4xx_hal.c ****   * @{
ARM GAS  /var/folders/k_/d4dbklhx7q1fs9lh20k9kt840000gn/T//ccmJo6fc.s 			page 3


  89:Drivers/STM32L4xx_HAL_Driver/Src/stm32l4xx_hal.c ****   */
  90:Drivers/STM32L4xx_HAL_Driver/Src/stm32l4xx_hal.c **** __IO uint32_t uwTick;
  91:Drivers/STM32L4xx_HAL_Driver/Src/stm32l4xx_hal.c **** uint32_t uwTickPrio = (1UL << __NVIC_PRIO_BITS); /* Invalid priority */
  92:Drivers/STM32L4xx_HAL_Driver/Src/stm32l4xx_hal.c **** uint32_t uwTickFreq = HAL_TICK_FREQ_DEFAULT;  /* 1KHz */
  93:Drivers/STM32L4xx_HAL_Driver/Src/stm32l4xx_hal.c **** /**
  94:Drivers/STM32L4xx_HAL_Driver/Src/stm32l4xx_hal.c ****   * @}
  95:Drivers/STM32L4xx_HAL_Driver/Src/stm32l4xx_hal.c ****   */
  96:Drivers/STM32L4xx_HAL_Driver/Src/stm32l4xx_hal.c **** 
  97:Drivers/STM32L4xx_HAL_Driver/Src/stm32l4xx_hal.c **** /* Exported functions --------------------------------------------------------*/
  98:Drivers/STM32L4xx_HAL_Driver/Src/stm32l4xx_hal.c **** 
  99:Drivers/STM32L4xx_HAL_Driver/Src/stm32l4xx_hal.c **** /** @defgroup HAL_Exported_Functions HAL Exported Functions
 100:Drivers/STM32L4xx_HAL_Driver/Src/stm32l4xx_hal.c ****   * @{
 101:Drivers/STM32L4xx_HAL_Driver/Src/stm32l4xx_hal.c ****   */
 102:Drivers/STM32L4xx_HAL_Driver/Src/stm32l4xx_hal.c **** 
 103:Drivers/STM32L4xx_HAL_Driver/Src/stm32l4xx_hal.c **** /** @defgroup HAL_Exported_Functions_Group1 Initialization and de-initialization Functions
 104:Drivers/STM32L4xx_HAL_Driver/Src/stm32l4xx_hal.c ****  *  @brief    Initialization and de-initialization functions
 105:Drivers/STM32L4xx_HAL_Driver/Src/stm32l4xx_hal.c ****  *
 106:Drivers/STM32L4xx_HAL_Driver/Src/stm32l4xx_hal.c **** @verbatim
 107:Drivers/STM32L4xx_HAL_Driver/Src/stm32l4xx_hal.c ****  ===============================================================================
 108:Drivers/STM32L4xx_HAL_Driver/Src/stm32l4xx_hal.c ****               ##### Initialization and de-initialization functions #####
 109:Drivers/STM32L4xx_HAL_Driver/Src/stm32l4xx_hal.c ****  ===============================================================================
 110:Drivers/STM32L4xx_HAL_Driver/Src/stm32l4xx_hal.c ****     [..]  This section provides functions allowing to:
 111:Drivers/STM32L4xx_HAL_Driver/Src/stm32l4xx_hal.c ****       (+) Initialize the Flash interface, the NVIC allocation and initial time base
 112:Drivers/STM32L4xx_HAL_Driver/Src/stm32l4xx_hal.c ****           clock configuration.
 113:Drivers/STM32L4xx_HAL_Driver/Src/stm32l4xx_hal.c ****       (+) De-initialize common part of the HAL.
 114:Drivers/STM32L4xx_HAL_Driver/Src/stm32l4xx_hal.c ****       (+) Configure the time base source to have 1ms time base with a dedicated
 115:Drivers/STM32L4xx_HAL_Driver/Src/stm32l4xx_hal.c ****           Tick interrupt priority.
 116:Drivers/STM32L4xx_HAL_Driver/Src/stm32l4xx_hal.c ****         (++) SysTick timer is used by default as source of time base, but user
 117:Drivers/STM32L4xx_HAL_Driver/Src/stm32l4xx_hal.c ****              can eventually implement his proper time base source (a general purpose
 118:Drivers/STM32L4xx_HAL_Driver/Src/stm32l4xx_hal.c ****              timer for example or other time source), keeping in mind that Time base
 119:Drivers/STM32L4xx_HAL_Driver/Src/stm32l4xx_hal.c ****              duration should be kept 1ms since PPP_TIMEOUT_VALUEs are defined and
 120:Drivers/STM32L4xx_HAL_Driver/Src/stm32l4xx_hal.c ****              handled in milliseconds basis.
 121:Drivers/STM32L4xx_HAL_Driver/Src/stm32l4xx_hal.c ****         (++) Time base configuration function (HAL_InitTick ()) is called automatically
 122:Drivers/STM32L4xx_HAL_Driver/Src/stm32l4xx_hal.c ****              at the beginning of the program after reset by HAL_Init() or at any time
 123:Drivers/STM32L4xx_HAL_Driver/Src/stm32l4xx_hal.c ****              when clock is configured, by HAL_RCC_ClockConfig().
 124:Drivers/STM32L4xx_HAL_Driver/Src/stm32l4xx_hal.c ****         (++) Source of time base is configured  to generate interrupts at regular
 125:Drivers/STM32L4xx_HAL_Driver/Src/stm32l4xx_hal.c ****              time intervals. Care must be taken if HAL_Delay() is called from a
 126:Drivers/STM32L4xx_HAL_Driver/Src/stm32l4xx_hal.c ****              peripheral ISR process, the Tick interrupt line must have higher priority
 127:Drivers/STM32L4xx_HAL_Driver/Src/stm32l4xx_hal.c ****             (numerically lower) than the peripheral interrupt. Otherwise the caller
 128:Drivers/STM32L4xx_HAL_Driver/Src/stm32l4xx_hal.c ****             ISR process will be blocked.
 129:Drivers/STM32L4xx_HAL_Driver/Src/stm32l4xx_hal.c ****        (++) functions affecting time base configurations are declared as __weak
 130:Drivers/STM32L4xx_HAL_Driver/Src/stm32l4xx_hal.c ****              to make  override possible  in case of other  implementations in user file.
 131:Drivers/STM32L4xx_HAL_Driver/Src/stm32l4xx_hal.c **** @endverbatim
 132:Drivers/STM32L4xx_HAL_Driver/Src/stm32l4xx_hal.c ****   * @{
 133:Drivers/STM32L4xx_HAL_Driver/Src/stm32l4xx_hal.c ****   */
 134:Drivers/STM32L4xx_HAL_Driver/Src/stm32l4xx_hal.c **** 
 135:Drivers/STM32L4xx_HAL_Driver/Src/stm32l4xx_hal.c **** /**
 136:Drivers/STM32L4xx_HAL_Driver/Src/stm32l4xx_hal.c ****   * @brief  Configure the Flash prefetch, the Instruction and Data caches,
 137:Drivers/STM32L4xx_HAL_Driver/Src/stm32l4xx_hal.c ****   *         the time base source, NVIC and any required global low level hardware
 138:Drivers/STM32L4xx_HAL_Driver/Src/stm32l4xx_hal.c ****   *         by calling the HAL_MspInit() callback function to be optionally defined in user file
 139:Drivers/STM32L4xx_HAL_Driver/Src/stm32l4xx_hal.c ****   *         stm32l4xx_hal_msp.c.
 140:Drivers/STM32L4xx_HAL_Driver/Src/stm32l4xx_hal.c ****   *
 141:Drivers/STM32L4xx_HAL_Driver/Src/stm32l4xx_hal.c ****   * @note   HAL_Init() function is called at the beginning of program after reset and before
 142:Drivers/STM32L4xx_HAL_Driver/Src/stm32l4xx_hal.c ****   *         the clock configuration.
 143:Drivers/STM32L4xx_HAL_Driver/Src/stm32l4xx_hal.c ****   *
 144:Drivers/STM32L4xx_HAL_Driver/Src/stm32l4xx_hal.c ****   * @note   In the default implementation the System Timer (Systick) is used as source of time base
 145:Drivers/STM32L4xx_HAL_Driver/Src/stm32l4xx_hal.c ****   *         The Systick configuration is based on MSI clock, as MSI is the clock
ARM GAS  /var/folders/k_/d4dbklhx7q1fs9lh20k9kt840000gn/T//ccmJo6fc.s 			page 4


 146:Drivers/STM32L4xx_HAL_Driver/Src/stm32l4xx_hal.c ****   *         used after a system Reset and the NVIC configuration is set to Priority group 4.
 147:Drivers/STM32L4xx_HAL_Driver/Src/stm32l4xx_hal.c ****   *         Once done, time base tick starts incrementing: the tick variable counter is incremented
 148:Drivers/STM32L4xx_HAL_Driver/Src/stm32l4xx_hal.c ****   *         each 1ms in the SysTick_Handler() interrupt handler.
 149:Drivers/STM32L4xx_HAL_Driver/Src/stm32l4xx_hal.c ****   *
 150:Drivers/STM32L4xx_HAL_Driver/Src/stm32l4xx_hal.c ****   * @retval HAL status
 151:Drivers/STM32L4xx_HAL_Driver/Src/stm32l4xx_hal.c ****   */
 152:Drivers/STM32L4xx_HAL_Driver/Src/stm32l4xx_hal.c **** HAL_StatusTypeDef HAL_Init(void)
 153:Drivers/STM32L4xx_HAL_Driver/Src/stm32l4xx_hal.c **** {
 154:Drivers/STM32L4xx_HAL_Driver/Src/stm32l4xx_hal.c ****   HAL_StatusTypeDef  status = HAL_OK;
 155:Drivers/STM32L4xx_HAL_Driver/Src/stm32l4xx_hal.c **** 
 156:Drivers/STM32L4xx_HAL_Driver/Src/stm32l4xx_hal.c ****   /* Configure Flash prefetch, Instruction cache, Data cache */
 157:Drivers/STM32L4xx_HAL_Driver/Src/stm32l4xx_hal.c ****   /* Default configuration at reset is:                      */
 158:Drivers/STM32L4xx_HAL_Driver/Src/stm32l4xx_hal.c ****   /* - Prefetch disabled                                     */
 159:Drivers/STM32L4xx_HAL_Driver/Src/stm32l4xx_hal.c ****   /* - Instruction cache enabled                             */
 160:Drivers/STM32L4xx_HAL_Driver/Src/stm32l4xx_hal.c ****   /* - Data cache enabled                                    */
 161:Drivers/STM32L4xx_HAL_Driver/Src/stm32l4xx_hal.c **** #if (INSTRUCTION_CACHE_ENABLE == 0)
 162:Drivers/STM32L4xx_HAL_Driver/Src/stm32l4xx_hal.c ****    __HAL_FLASH_INSTRUCTION_CACHE_DISABLE();
 163:Drivers/STM32L4xx_HAL_Driver/Src/stm32l4xx_hal.c **** #endif /* INSTRUCTION_CACHE_ENABLE */
 164:Drivers/STM32L4xx_HAL_Driver/Src/stm32l4xx_hal.c **** 
 165:Drivers/STM32L4xx_HAL_Driver/Src/stm32l4xx_hal.c **** #if (DATA_CACHE_ENABLE == 0)
 166:Drivers/STM32L4xx_HAL_Driver/Src/stm32l4xx_hal.c ****    __HAL_FLASH_DATA_CACHE_DISABLE();
 167:Drivers/STM32L4xx_HAL_Driver/Src/stm32l4xx_hal.c **** #endif /* DATA_CACHE_ENABLE */
 168:Drivers/STM32L4xx_HAL_Driver/Src/stm32l4xx_hal.c **** 
 169:Drivers/STM32L4xx_HAL_Driver/Src/stm32l4xx_hal.c **** #if (PREFETCH_ENABLE != 0)
 170:Drivers/STM32L4xx_HAL_Driver/Src/stm32l4xx_hal.c ****   __HAL_FLASH_PREFETCH_BUFFER_ENABLE();
 171:Drivers/STM32L4xx_HAL_Driver/Src/stm32l4xx_hal.c **** #endif /* PREFETCH_ENABLE */
 172:Drivers/STM32L4xx_HAL_Driver/Src/stm32l4xx_hal.c **** 
 173:Drivers/STM32L4xx_HAL_Driver/Src/stm32l4xx_hal.c ****   /* Set Interrupt Group Priority */
 174:Drivers/STM32L4xx_HAL_Driver/Src/stm32l4xx_hal.c ****   HAL_NVIC_SetPriorityGrouping(NVIC_PRIORITYGROUP_4);
 175:Drivers/STM32L4xx_HAL_Driver/Src/stm32l4xx_hal.c **** 
 176:Drivers/STM32L4xx_HAL_Driver/Src/stm32l4xx_hal.c ****   /* Use SysTick as time base source and configure 1ms tick (default clock after Reset is MSI) */
 177:Drivers/STM32L4xx_HAL_Driver/Src/stm32l4xx_hal.c ****   if (HAL_InitTick(TICK_INT_PRIORITY) != HAL_OK)
 178:Drivers/STM32L4xx_HAL_Driver/Src/stm32l4xx_hal.c ****   {
 179:Drivers/STM32L4xx_HAL_Driver/Src/stm32l4xx_hal.c ****     status = HAL_ERROR;
 180:Drivers/STM32L4xx_HAL_Driver/Src/stm32l4xx_hal.c ****   }
 181:Drivers/STM32L4xx_HAL_Driver/Src/stm32l4xx_hal.c ****   else
 182:Drivers/STM32L4xx_HAL_Driver/Src/stm32l4xx_hal.c ****   {
 183:Drivers/STM32L4xx_HAL_Driver/Src/stm32l4xx_hal.c ****     /* Init the low level hardware */
 184:Drivers/STM32L4xx_HAL_Driver/Src/stm32l4xx_hal.c ****     HAL_MspInit();
 185:Drivers/STM32L4xx_HAL_Driver/Src/stm32l4xx_hal.c ****   }
 186:Drivers/STM32L4xx_HAL_Driver/Src/stm32l4xx_hal.c **** 
 187:Drivers/STM32L4xx_HAL_Driver/Src/stm32l4xx_hal.c ****   /* Return function status */
 188:Drivers/STM32L4xx_HAL_Driver/Src/stm32l4xx_hal.c ****   return status;
 189:Drivers/STM32L4xx_HAL_Driver/Src/stm32l4xx_hal.c **** }
 190:Drivers/STM32L4xx_HAL_Driver/Src/stm32l4xx_hal.c **** 
 191:Drivers/STM32L4xx_HAL_Driver/Src/stm32l4xx_hal.c **** /**
 192:Drivers/STM32L4xx_HAL_Driver/Src/stm32l4xx_hal.c ****   * @brief De-initialize common part of the HAL and stop the source of time base.
 193:Drivers/STM32L4xx_HAL_Driver/Src/stm32l4xx_hal.c ****   * @note This function is optional.
 194:Drivers/STM32L4xx_HAL_Driver/Src/stm32l4xx_hal.c ****   * @retval HAL status
 195:Drivers/STM32L4xx_HAL_Driver/Src/stm32l4xx_hal.c ****   */
 196:Drivers/STM32L4xx_HAL_Driver/Src/stm32l4xx_hal.c **** HAL_StatusTypeDef HAL_DeInit(void)
 197:Drivers/STM32L4xx_HAL_Driver/Src/stm32l4xx_hal.c **** {
 198:Drivers/STM32L4xx_HAL_Driver/Src/stm32l4xx_hal.c ****   /* Reset of all peripherals */
 199:Drivers/STM32L4xx_HAL_Driver/Src/stm32l4xx_hal.c ****   __HAL_RCC_APB1_FORCE_RESET();
 200:Drivers/STM32L4xx_HAL_Driver/Src/stm32l4xx_hal.c ****   __HAL_RCC_APB1_RELEASE_RESET();
 201:Drivers/STM32L4xx_HAL_Driver/Src/stm32l4xx_hal.c **** 
 202:Drivers/STM32L4xx_HAL_Driver/Src/stm32l4xx_hal.c ****   __HAL_RCC_APB2_FORCE_RESET();
ARM GAS  /var/folders/k_/d4dbklhx7q1fs9lh20k9kt840000gn/T//ccmJo6fc.s 			page 5


 203:Drivers/STM32L4xx_HAL_Driver/Src/stm32l4xx_hal.c ****   __HAL_RCC_APB2_RELEASE_RESET();
 204:Drivers/STM32L4xx_HAL_Driver/Src/stm32l4xx_hal.c **** 
 205:Drivers/STM32L4xx_HAL_Driver/Src/stm32l4xx_hal.c ****   __HAL_RCC_AHB1_FORCE_RESET();
 206:Drivers/STM32L4xx_HAL_Driver/Src/stm32l4xx_hal.c ****   __HAL_RCC_AHB1_RELEASE_RESET();
 207:Drivers/STM32L4xx_HAL_Driver/Src/stm32l4xx_hal.c **** 
 208:Drivers/STM32L4xx_HAL_Driver/Src/stm32l4xx_hal.c ****   __HAL_RCC_AHB2_FORCE_RESET();
 209:Drivers/STM32L4xx_HAL_Driver/Src/stm32l4xx_hal.c ****   __HAL_RCC_AHB2_RELEASE_RESET();
 210:Drivers/STM32L4xx_HAL_Driver/Src/stm32l4xx_hal.c **** 
 211:Drivers/STM32L4xx_HAL_Driver/Src/stm32l4xx_hal.c ****   __HAL_RCC_AHB3_FORCE_RESET();
 212:Drivers/STM32L4xx_HAL_Driver/Src/stm32l4xx_hal.c ****   __HAL_RCC_AHB3_RELEASE_RESET();
 213:Drivers/STM32L4xx_HAL_Driver/Src/stm32l4xx_hal.c **** 
 214:Drivers/STM32L4xx_HAL_Driver/Src/stm32l4xx_hal.c ****   /* De-Init the low level hardware */
 215:Drivers/STM32L4xx_HAL_Driver/Src/stm32l4xx_hal.c ****   HAL_MspDeInit();
 216:Drivers/STM32L4xx_HAL_Driver/Src/stm32l4xx_hal.c **** 
 217:Drivers/STM32L4xx_HAL_Driver/Src/stm32l4xx_hal.c ****   /* Return function status */
 218:Drivers/STM32L4xx_HAL_Driver/Src/stm32l4xx_hal.c ****   return HAL_OK;
 219:Drivers/STM32L4xx_HAL_Driver/Src/stm32l4xx_hal.c **** }
 220:Drivers/STM32L4xx_HAL_Driver/Src/stm32l4xx_hal.c **** 
 221:Drivers/STM32L4xx_HAL_Driver/Src/stm32l4xx_hal.c **** /**
 222:Drivers/STM32L4xx_HAL_Driver/Src/stm32l4xx_hal.c ****   * @brief  Initialize the MSP.
 223:Drivers/STM32L4xx_HAL_Driver/Src/stm32l4xx_hal.c ****   * @retval None
 224:Drivers/STM32L4xx_HAL_Driver/Src/stm32l4xx_hal.c ****   */
 225:Drivers/STM32L4xx_HAL_Driver/Src/stm32l4xx_hal.c **** __weak void HAL_MspInit(void)
 226:Drivers/STM32L4xx_HAL_Driver/Src/stm32l4xx_hal.c **** {
  28              		.loc 1 226 0
  29              		.cfi_startproc
  30              		@ args = 0, pretend = 0, frame = 0
  31              		@ frame_needed = 0, uses_anonymous_args = 0
  32              		@ link register save eliminated.
 227:Drivers/STM32L4xx_HAL_Driver/Src/stm32l4xx_hal.c ****   /* NOTE : This function should not be modified, when the callback is needed,
 228:Drivers/STM32L4xx_HAL_Driver/Src/stm32l4xx_hal.c ****             the HAL_MspInit could be implemented in the user file
 229:Drivers/STM32L4xx_HAL_Driver/Src/stm32l4xx_hal.c ****    */
 230:Drivers/STM32L4xx_HAL_Driver/Src/stm32l4xx_hal.c **** }
  33              		.loc 1 230 0
  34 0000 7047     		bx	lr
  35              		.cfi_endproc
  36              	.LFE132:
  38              		.section	.text.HAL_MspDeInit,"ax",%progbits
  39              		.align	1
  40              		.weak	HAL_MspDeInit
  41              		.syntax unified
  42              		.thumb
  43              		.thumb_func
  44              		.fpu fpv4-sp-d16
  46              	HAL_MspDeInit:
  47              	.LFB133:
 231:Drivers/STM32L4xx_HAL_Driver/Src/stm32l4xx_hal.c **** 
 232:Drivers/STM32L4xx_HAL_Driver/Src/stm32l4xx_hal.c **** /**
 233:Drivers/STM32L4xx_HAL_Driver/Src/stm32l4xx_hal.c ****   * @brief  DeInitialize the MSP.
 234:Drivers/STM32L4xx_HAL_Driver/Src/stm32l4xx_hal.c ****   * @retval None
 235:Drivers/STM32L4xx_HAL_Driver/Src/stm32l4xx_hal.c ****   */
 236:Drivers/STM32L4xx_HAL_Driver/Src/stm32l4xx_hal.c **** __weak void HAL_MspDeInit(void)
 237:Drivers/STM32L4xx_HAL_Driver/Src/stm32l4xx_hal.c **** {
  48              		.loc 1 237 0
  49              		.cfi_startproc
  50              		@ args = 0, pretend = 0, frame = 0
  51              		@ frame_needed = 0, uses_anonymous_args = 0
ARM GAS  /var/folders/k_/d4dbklhx7q1fs9lh20k9kt840000gn/T//ccmJo6fc.s 			page 6


  52              		@ link register save eliminated.
 238:Drivers/STM32L4xx_HAL_Driver/Src/stm32l4xx_hal.c ****   /* NOTE : This function should not be modified, when the callback is needed,
 239:Drivers/STM32L4xx_HAL_Driver/Src/stm32l4xx_hal.c ****             the HAL_MspDeInit could be implemented in the user file
 240:Drivers/STM32L4xx_HAL_Driver/Src/stm32l4xx_hal.c ****    */
 241:Drivers/STM32L4xx_HAL_Driver/Src/stm32l4xx_hal.c **** }
  53              		.loc 1 241 0
  54 0000 7047     		bx	lr
  55              		.cfi_endproc
  56              	.LFE133:
  58              		.section	.text.HAL_DeInit,"ax",%progbits
  59              		.align	1
  60              		.global	HAL_DeInit
  61              		.syntax unified
  62              		.thumb
  63              		.thumb_func
  64              		.fpu fpv4-sp-d16
  66              	HAL_DeInit:
  67              	.LFB131:
 197:Drivers/STM32L4xx_HAL_Driver/Src/stm32l4xx_hal.c ****   /* Reset of all peripherals */
  68              		.loc 1 197 0
  69              		.cfi_startproc
  70              		@ args = 0, pretend = 0, frame = 0
  71              		@ frame_needed = 0, uses_anonymous_args = 0
  72 0000 10B5     		push	{r4, lr}
  73              	.LCFI0:
  74              		.cfi_def_cfa_offset 8
  75              		.cfi_offset 4, -8
  76              		.cfi_offset 14, -4
 199:Drivers/STM32L4xx_HAL_Driver/Src/stm32l4xx_hal.c ****   __HAL_RCC_APB1_RELEASE_RESET();
  77              		.loc 1 199 0
  78 0002 094B     		ldr	r3, .L5
  79 0004 4FF0FF32 		mov	r2, #-1
  80 0008 9A63     		str	r2, [r3, #56]
 200:Drivers/STM32L4xx_HAL_Driver/Src/stm32l4xx_hal.c **** 
  81              		.loc 1 200 0
  82 000a 0024     		movs	r4, #0
  83 000c 9C63     		str	r4, [r3, #56]
 202:Drivers/STM32L4xx_HAL_Driver/Src/stm32l4xx_hal.c ****   __HAL_RCC_APB2_RELEASE_RESET();
  84              		.loc 1 202 0
  85 000e 1A64     		str	r2, [r3, #64]
 203:Drivers/STM32L4xx_HAL_Driver/Src/stm32l4xx_hal.c **** 
  86              		.loc 1 203 0
  87 0010 1C64     		str	r4, [r3, #64]
 205:Drivers/STM32L4xx_HAL_Driver/Src/stm32l4xx_hal.c ****   __HAL_RCC_AHB1_RELEASE_RESET();
  88              		.loc 1 205 0
  89 0012 9A62     		str	r2, [r3, #40]
 206:Drivers/STM32L4xx_HAL_Driver/Src/stm32l4xx_hal.c **** 
  90              		.loc 1 206 0
  91 0014 9C62     		str	r4, [r3, #40]
 208:Drivers/STM32L4xx_HAL_Driver/Src/stm32l4xx_hal.c ****   __HAL_RCC_AHB2_RELEASE_RESET();
  92              		.loc 1 208 0
  93 0016 DA62     		str	r2, [r3, #44]
 209:Drivers/STM32L4xx_HAL_Driver/Src/stm32l4xx_hal.c **** 
  94              		.loc 1 209 0
  95 0018 DC62     		str	r4, [r3, #44]
 211:Drivers/STM32L4xx_HAL_Driver/Src/stm32l4xx_hal.c ****   __HAL_RCC_AHB3_RELEASE_RESET();
  96              		.loc 1 211 0
ARM GAS  /var/folders/k_/d4dbklhx7q1fs9lh20k9kt840000gn/T//ccmJo6fc.s 			page 7


  97 001a 1A63     		str	r2, [r3, #48]
 212:Drivers/STM32L4xx_HAL_Driver/Src/stm32l4xx_hal.c **** 
  98              		.loc 1 212 0
  99 001c 1C63     		str	r4, [r3, #48]
 215:Drivers/STM32L4xx_HAL_Driver/Src/stm32l4xx_hal.c **** 
 100              		.loc 1 215 0
 101 001e FFF7FEFF 		bl	HAL_MspDeInit
 102              	.LVL0:
 219:Drivers/STM32L4xx_HAL_Driver/Src/stm32l4xx_hal.c **** 
 103              		.loc 1 219 0
 104 0022 2046     		mov	r0, r4
 105 0024 10BD     		pop	{r4, pc}
 106              	.L6:
 107 0026 00BF     		.align	2
 108              	.L5:
 109 0028 00100240 		.word	1073876992
 110              		.cfi_endproc
 111              	.LFE131:
 113              		.section	.text.HAL_InitTick,"ax",%progbits
 114              		.align	1
 115              		.weak	HAL_InitTick
 116              		.syntax unified
 117              		.thumb
 118              		.thumb_func
 119              		.fpu fpv4-sp-d16
 121              	HAL_InitTick:
 122              	.LFB134:
 242:Drivers/STM32L4xx_HAL_Driver/Src/stm32l4xx_hal.c **** 
 243:Drivers/STM32L4xx_HAL_Driver/Src/stm32l4xx_hal.c **** /**
 244:Drivers/STM32L4xx_HAL_Driver/Src/stm32l4xx_hal.c ****   * @brief This function configures the source of the time base:
 245:Drivers/STM32L4xx_HAL_Driver/Src/stm32l4xx_hal.c ****   *        The time source is configured to have 1ms time base with a dedicated
 246:Drivers/STM32L4xx_HAL_Driver/Src/stm32l4xx_hal.c ****   *        Tick interrupt priority.
 247:Drivers/STM32L4xx_HAL_Driver/Src/stm32l4xx_hal.c ****   * @note This function is called  automatically at the beginning of program after
 248:Drivers/STM32L4xx_HAL_Driver/Src/stm32l4xx_hal.c ****   *       reset by HAL_Init() or at any time when clock is reconfigured  by HAL_RCC_ClockConfig().
 249:Drivers/STM32L4xx_HAL_Driver/Src/stm32l4xx_hal.c ****   * @note In the default implementation, SysTick timer is the source of time base.
 250:Drivers/STM32L4xx_HAL_Driver/Src/stm32l4xx_hal.c ****   *       It is used to generate interrupts at regular time intervals.
 251:Drivers/STM32L4xx_HAL_Driver/Src/stm32l4xx_hal.c ****   *       Care must be taken if HAL_Delay() is called from a peripheral ISR process,
 252:Drivers/STM32L4xx_HAL_Driver/Src/stm32l4xx_hal.c ****   *       The SysTick interrupt must have higher priority (numerically lower)
 253:Drivers/STM32L4xx_HAL_Driver/Src/stm32l4xx_hal.c ****   *       than the peripheral interrupt. Otherwise the caller ISR process will be blocked.
 254:Drivers/STM32L4xx_HAL_Driver/Src/stm32l4xx_hal.c ****   *       The function is declared as __weak  to be overwritten  in case of other
 255:Drivers/STM32L4xx_HAL_Driver/Src/stm32l4xx_hal.c ****   *       implementation  in user file.
 256:Drivers/STM32L4xx_HAL_Driver/Src/stm32l4xx_hal.c ****   * @param TickPriority  Tick interrupt priority.
 257:Drivers/STM32L4xx_HAL_Driver/Src/stm32l4xx_hal.c ****   * @retval HAL status
 258:Drivers/STM32L4xx_HAL_Driver/Src/stm32l4xx_hal.c ****   */
 259:Drivers/STM32L4xx_HAL_Driver/Src/stm32l4xx_hal.c **** __weak HAL_StatusTypeDef HAL_InitTick(uint32_t TickPriority)
 260:Drivers/STM32L4xx_HAL_Driver/Src/stm32l4xx_hal.c **** {
 123              		.loc 1 260 0
 124              		.cfi_startproc
 125              		@ args = 0, pretend = 0, frame = 0
 126              		@ frame_needed = 0, uses_anonymous_args = 0
 127              	.LVL1:
 261:Drivers/STM32L4xx_HAL_Driver/Src/stm32l4xx_hal.c ****   HAL_StatusTypeDef  status = HAL_OK;
 262:Drivers/STM32L4xx_HAL_Driver/Src/stm32l4xx_hal.c **** 
 263:Drivers/STM32L4xx_HAL_Driver/Src/stm32l4xx_hal.c ****   if (uwTickFreq != 0U)
 128              		.loc 1 263 0
 129 0000 104B     		ldr	r3, .L18
 130 0002 1B68     		ldr	r3, [r3]
ARM GAS  /var/folders/k_/d4dbklhx7q1fs9lh20k9kt840000gn/T//ccmJo6fc.s 			page 8


 131 0004 0BB9     		cbnz	r3, .L16
 264:Drivers/STM32L4xx_HAL_Driver/Src/stm32l4xx_hal.c ****   {
 265:Drivers/STM32L4xx_HAL_Driver/Src/stm32l4xx_hal.c ****     /*Configure the SysTick to have interrupt in 1ms time basis*/
 266:Drivers/STM32L4xx_HAL_Driver/Src/stm32l4xx_hal.c ****     if (HAL_SYSTICK_Config(SystemCoreClock / (1000U / uwTickFreq)) == 0U)
 267:Drivers/STM32L4xx_HAL_Driver/Src/stm32l4xx_hal.c ****     {
 268:Drivers/STM32L4xx_HAL_Driver/Src/stm32l4xx_hal.c ****       /* Configure the SysTick IRQ priority */
 269:Drivers/STM32L4xx_HAL_Driver/Src/stm32l4xx_hal.c ****       if (TickPriority < (1UL << __NVIC_PRIO_BITS))
 270:Drivers/STM32L4xx_HAL_Driver/Src/stm32l4xx_hal.c ****       {
 271:Drivers/STM32L4xx_HAL_Driver/Src/stm32l4xx_hal.c ****         HAL_NVIC_SetPriority(SysTick_IRQn, TickPriority, 0U);
 272:Drivers/STM32L4xx_HAL_Driver/Src/stm32l4xx_hal.c ****         uwTickPrio = TickPriority;
 273:Drivers/STM32L4xx_HAL_Driver/Src/stm32l4xx_hal.c ****       }
 274:Drivers/STM32L4xx_HAL_Driver/Src/stm32l4xx_hal.c ****       else
 275:Drivers/STM32L4xx_HAL_Driver/Src/stm32l4xx_hal.c ****       {
 276:Drivers/STM32L4xx_HAL_Driver/Src/stm32l4xx_hal.c ****         status = HAL_ERROR;
 277:Drivers/STM32L4xx_HAL_Driver/Src/stm32l4xx_hal.c ****       }
 278:Drivers/STM32L4xx_HAL_Driver/Src/stm32l4xx_hal.c ****     }
 279:Drivers/STM32L4xx_HAL_Driver/Src/stm32l4xx_hal.c ****     else
 280:Drivers/STM32L4xx_HAL_Driver/Src/stm32l4xx_hal.c ****     {
 281:Drivers/STM32L4xx_HAL_Driver/Src/stm32l4xx_hal.c ****       status = HAL_ERROR;
 282:Drivers/STM32L4xx_HAL_Driver/Src/stm32l4xx_hal.c ****     }
 283:Drivers/STM32L4xx_HAL_Driver/Src/stm32l4xx_hal.c ****   }
 284:Drivers/STM32L4xx_HAL_Driver/Src/stm32l4xx_hal.c ****   else
 285:Drivers/STM32L4xx_HAL_Driver/Src/stm32l4xx_hal.c ****   {
 286:Drivers/STM32L4xx_HAL_Driver/Src/stm32l4xx_hal.c ****     status = HAL_ERROR;
 132              		.loc 1 286 0
 133 0006 0120     		movs	r0, #1
 134              	.LVL2:
 287:Drivers/STM32L4xx_HAL_Driver/Src/stm32l4xx_hal.c ****   }
 288:Drivers/STM32L4xx_HAL_Driver/Src/stm32l4xx_hal.c **** 
 289:Drivers/STM32L4xx_HAL_Driver/Src/stm32l4xx_hal.c ****   /* Return function status */
 290:Drivers/STM32L4xx_HAL_Driver/Src/stm32l4xx_hal.c ****   return status;
 291:Drivers/STM32L4xx_HAL_Driver/Src/stm32l4xx_hal.c **** }
 135              		.loc 1 291 0
 136 0008 7047     		bx	lr
 137              	.LVL3:
 138              	.L16:
 260:Drivers/STM32L4xx_HAL_Driver/Src/stm32l4xx_hal.c ****   HAL_StatusTypeDef  status = HAL_OK;
 139              		.loc 1 260 0
 140 000a 10B5     		push	{r4, lr}
 141              	.LCFI1:
 142              		.cfi_def_cfa_offset 8
 143              		.cfi_offset 4, -8
 144              		.cfi_offset 14, -4
 145 000c 0446     		mov	r4, r0
 266:Drivers/STM32L4xx_HAL_Driver/Src/stm32l4xx_hal.c ****     {
 146              		.loc 1 266 0
 147 000e 4FF47A70 		mov	r0, #1000
 148              	.LVL4:
 149 0012 B0FBF3F3 		udiv	r3, r0, r3
 150 0016 0C4A     		ldr	r2, .L18+4
 151 0018 1068     		ldr	r0, [r2]
 152 001a B0FBF3F0 		udiv	r0, r0, r3
 153 001e FFF7FEFF 		bl	HAL_SYSTICK_Config
 154              	.LVL5:
 155 0022 68B9     		cbnz	r0, .L10
 269:Drivers/STM32L4xx_HAL_Driver/Src/stm32l4xx_hal.c ****       {
 156              		.loc 1 269 0
ARM GAS  /var/folders/k_/d4dbklhx7q1fs9lh20k9kt840000gn/T//ccmJo6fc.s 			page 9


 157 0024 0F2C     		cmp	r4, #15
 158 0026 01D9     		bls	.L17
 276:Drivers/STM32L4xx_HAL_Driver/Src/stm32l4xx_hal.c ****       }
 159              		.loc 1 276 0
 160 0028 0120     		movs	r0, #1
 161 002a 0AE0     		b	.L8
 162              	.L17:
 271:Drivers/STM32L4xx_HAL_Driver/Src/stm32l4xx_hal.c ****         uwTickPrio = TickPriority;
 163              		.loc 1 271 0
 164 002c 0022     		movs	r2, #0
 165 002e 2146     		mov	r1, r4
 166 0030 4FF0FF30 		mov	r0, #-1
 167 0034 FFF7FEFF 		bl	HAL_NVIC_SetPriority
 168              	.LVL6:
 272:Drivers/STM32L4xx_HAL_Driver/Src/stm32l4xx_hal.c ****       }
 169              		.loc 1 272 0
 170 0038 044B     		ldr	r3, .L18+8
 171 003a 1C60     		str	r4, [r3]
 261:Drivers/STM32L4xx_HAL_Driver/Src/stm32l4xx_hal.c **** 
 172              		.loc 1 261 0
 173 003c 0020     		movs	r0, #0
 174 003e 00E0     		b	.L8
 175              	.L10:
 281:Drivers/STM32L4xx_HAL_Driver/Src/stm32l4xx_hal.c ****     }
 176              		.loc 1 281 0
 177 0040 0120     		movs	r0, #1
 178              	.L8:
 179              	.LVL7:
 180              		.loc 1 291 0
 181 0042 10BD     		pop	{r4, pc}
 182              	.LVL8:
 183              	.L19:
 184              		.align	2
 185              	.L18:
 186 0044 00000000 		.word	.LANCHOR0
 187 0048 00000000 		.word	SystemCoreClock
 188 004c 00000000 		.word	.LANCHOR1
 189              		.cfi_endproc
 190              	.LFE134:
 192              		.section	.text.HAL_Init,"ax",%progbits
 193              		.align	1
 194              		.global	HAL_Init
 195              		.syntax unified
 196              		.thumb
 197              		.thumb_func
 198              		.fpu fpv4-sp-d16
 200              	HAL_Init:
 201              	.LFB130:
 153:Drivers/STM32L4xx_HAL_Driver/Src/stm32l4xx_hal.c ****   HAL_StatusTypeDef  status = HAL_OK;
 202              		.loc 1 153 0
 203              		.cfi_startproc
 204              		@ args = 0, pretend = 0, frame = 0
 205              		@ frame_needed = 0, uses_anonymous_args = 0
 206 0000 10B5     		push	{r4, lr}
 207              	.LCFI2:
 208              		.cfi_def_cfa_offset 8
 209              		.cfi_offset 4, -8
ARM GAS  /var/folders/k_/d4dbklhx7q1fs9lh20k9kt840000gn/T//ccmJo6fc.s 			page 10


 210              		.cfi_offset 14, -4
 211              	.LVL9:
 170:Drivers/STM32L4xx_HAL_Driver/Src/stm32l4xx_hal.c **** #endif /* PREFETCH_ENABLE */
 212              		.loc 1 170 0
 213 0002 094A     		ldr	r2, .L25
 214 0004 1368     		ldr	r3, [r2]
 215 0006 43F48073 		orr	r3, r3, #256
 216 000a 1360     		str	r3, [r2]
 174:Drivers/STM32L4xx_HAL_Driver/Src/stm32l4xx_hal.c **** 
 217              		.loc 1 174 0
 218 000c 0320     		movs	r0, #3
 219 000e FFF7FEFF 		bl	HAL_NVIC_SetPriorityGrouping
 220              	.LVL10:
 177:Drivers/STM32L4xx_HAL_Driver/Src/stm32l4xx_hal.c ****   {
 221              		.loc 1 177 0
 222 0012 0020     		movs	r0, #0
 223 0014 FFF7FEFF 		bl	HAL_InitTick
 224              	.LVL11:
 225 0018 10B1     		cbz	r0, .L24
 179:Drivers/STM32L4xx_HAL_Driver/Src/stm32l4xx_hal.c ****   }
 226              		.loc 1 179 0
 227 001a 0124     		movs	r4, #1
 228              	.L21:
 229              	.LVL12:
 189:Drivers/STM32L4xx_HAL_Driver/Src/stm32l4xx_hal.c **** 
 230              		.loc 1 189 0
 231 001c 2046     		mov	r0, r4
 232 001e 10BD     		pop	{r4, pc}
 233              	.LVL13:
 234              	.L24:
 235 0020 0446     		mov	r4, r0
 184:Drivers/STM32L4xx_HAL_Driver/Src/stm32l4xx_hal.c ****   }
 236              		.loc 1 184 0
 237 0022 FFF7FEFF 		bl	HAL_MspInit
 238              	.LVL14:
 239 0026 F9E7     		b	.L21
 240              	.L26:
 241              		.align	2
 242              	.L25:
 243 0028 00200240 		.word	1073881088
 244              		.cfi_endproc
 245              	.LFE130:
 247              		.section	.text.HAL_IncTick,"ax",%progbits
 248              		.align	1
 249              		.weak	HAL_IncTick
 250              		.syntax unified
 251              		.thumb
 252              		.thumb_func
 253              		.fpu fpv4-sp-d16
 255              	HAL_IncTick:
 256              	.LFB135:
 292:Drivers/STM32L4xx_HAL_Driver/Src/stm32l4xx_hal.c **** 
 293:Drivers/STM32L4xx_HAL_Driver/Src/stm32l4xx_hal.c **** /**
 294:Drivers/STM32L4xx_HAL_Driver/Src/stm32l4xx_hal.c ****   * @}
 295:Drivers/STM32L4xx_HAL_Driver/Src/stm32l4xx_hal.c ****   */
 296:Drivers/STM32L4xx_HAL_Driver/Src/stm32l4xx_hal.c **** 
 297:Drivers/STM32L4xx_HAL_Driver/Src/stm32l4xx_hal.c **** /** @defgroup HAL_Exported_Functions_Group2 HAL Control functions
ARM GAS  /var/folders/k_/d4dbklhx7q1fs9lh20k9kt840000gn/T//ccmJo6fc.s 			page 11


 298:Drivers/STM32L4xx_HAL_Driver/Src/stm32l4xx_hal.c ****  *  @brief    HAL Control functions
 299:Drivers/STM32L4xx_HAL_Driver/Src/stm32l4xx_hal.c ****  *
 300:Drivers/STM32L4xx_HAL_Driver/Src/stm32l4xx_hal.c **** @verbatim
 301:Drivers/STM32L4xx_HAL_Driver/Src/stm32l4xx_hal.c ****  ===============================================================================
 302:Drivers/STM32L4xx_HAL_Driver/Src/stm32l4xx_hal.c ****                       ##### HAL Control functions #####
 303:Drivers/STM32L4xx_HAL_Driver/Src/stm32l4xx_hal.c ****  ===============================================================================
 304:Drivers/STM32L4xx_HAL_Driver/Src/stm32l4xx_hal.c ****     [..]  This section provides functions allowing to:
 305:Drivers/STM32L4xx_HAL_Driver/Src/stm32l4xx_hal.c ****       (+) Provide a tick value in millisecond
 306:Drivers/STM32L4xx_HAL_Driver/Src/stm32l4xx_hal.c ****       (+) Provide a blocking delay in millisecond
 307:Drivers/STM32L4xx_HAL_Driver/Src/stm32l4xx_hal.c ****       (+) Suspend the time base source interrupt
 308:Drivers/STM32L4xx_HAL_Driver/Src/stm32l4xx_hal.c ****       (+) Resume the time base source interrupt
 309:Drivers/STM32L4xx_HAL_Driver/Src/stm32l4xx_hal.c ****       (+) Get the HAL API driver version
 310:Drivers/STM32L4xx_HAL_Driver/Src/stm32l4xx_hal.c ****       (+) Get the device identifier
 311:Drivers/STM32L4xx_HAL_Driver/Src/stm32l4xx_hal.c ****       (+) Get the device revision identifier
 312:Drivers/STM32L4xx_HAL_Driver/Src/stm32l4xx_hal.c **** 
 313:Drivers/STM32L4xx_HAL_Driver/Src/stm32l4xx_hal.c **** @endverbatim
 314:Drivers/STM32L4xx_HAL_Driver/Src/stm32l4xx_hal.c ****   * @{
 315:Drivers/STM32L4xx_HAL_Driver/Src/stm32l4xx_hal.c ****   */
 316:Drivers/STM32L4xx_HAL_Driver/Src/stm32l4xx_hal.c **** 
 317:Drivers/STM32L4xx_HAL_Driver/Src/stm32l4xx_hal.c **** /**
 318:Drivers/STM32L4xx_HAL_Driver/Src/stm32l4xx_hal.c ****   * @brief This function is called to increment a global variable "uwTick"
 319:Drivers/STM32L4xx_HAL_Driver/Src/stm32l4xx_hal.c ****   *        used as application time base.
 320:Drivers/STM32L4xx_HAL_Driver/Src/stm32l4xx_hal.c ****   * @note In the default implementation, this variable is incremented each 1ms
 321:Drivers/STM32L4xx_HAL_Driver/Src/stm32l4xx_hal.c ****   *       in SysTick ISR.
 322:Drivers/STM32L4xx_HAL_Driver/Src/stm32l4xx_hal.c ****  * @note This function is declared as __weak to be overwritten in case of other
 323:Drivers/STM32L4xx_HAL_Driver/Src/stm32l4xx_hal.c ****   *      implementations in user file.
 324:Drivers/STM32L4xx_HAL_Driver/Src/stm32l4xx_hal.c ****   * @retval None
 325:Drivers/STM32L4xx_HAL_Driver/Src/stm32l4xx_hal.c ****   */
 326:Drivers/STM32L4xx_HAL_Driver/Src/stm32l4xx_hal.c **** __weak void HAL_IncTick(void)
 327:Drivers/STM32L4xx_HAL_Driver/Src/stm32l4xx_hal.c **** {
 257              		.loc 1 327 0
 258              		.cfi_startproc
 259              		@ args = 0, pretend = 0, frame = 0
 260              		@ frame_needed = 0, uses_anonymous_args = 0
 261              		@ link register save eliminated.
 328:Drivers/STM32L4xx_HAL_Driver/Src/stm32l4xx_hal.c ****   uwTick += uwTickFreq;
 262              		.loc 1 328 0
 263 0000 034A     		ldr	r2, .L28
 264 0002 1368     		ldr	r3, [r2]
 265 0004 0349     		ldr	r1, .L28+4
 266 0006 0968     		ldr	r1, [r1]
 267 0008 0B44     		add	r3, r3, r1
 268 000a 1360     		str	r3, [r2]
 329:Drivers/STM32L4xx_HAL_Driver/Src/stm32l4xx_hal.c **** }
 269              		.loc 1 329 0
 270 000c 7047     		bx	lr
 271              	.L29:
 272 000e 00BF     		.align	2
 273              	.L28:
 274 0010 00000000 		.word	uwTick
 275 0014 00000000 		.word	.LANCHOR0
 276              		.cfi_endproc
 277              	.LFE135:
 279              		.section	.text.HAL_GetTick,"ax",%progbits
 280              		.align	1
 281              		.weak	HAL_GetTick
 282              		.syntax unified
ARM GAS  /var/folders/k_/d4dbklhx7q1fs9lh20k9kt840000gn/T//ccmJo6fc.s 			page 12


 283              		.thumb
 284              		.thumb_func
 285              		.fpu fpv4-sp-d16
 287              	HAL_GetTick:
 288              	.LFB136:
 330:Drivers/STM32L4xx_HAL_Driver/Src/stm32l4xx_hal.c **** 
 331:Drivers/STM32L4xx_HAL_Driver/Src/stm32l4xx_hal.c **** /**
 332:Drivers/STM32L4xx_HAL_Driver/Src/stm32l4xx_hal.c ****   * @brief Provide a tick value in millisecond.
 333:Drivers/STM32L4xx_HAL_Driver/Src/stm32l4xx_hal.c ****   * @note This function is declared as __weak to be overwritten in case of other
 334:Drivers/STM32L4xx_HAL_Driver/Src/stm32l4xx_hal.c ****   *       implementations in user file.
 335:Drivers/STM32L4xx_HAL_Driver/Src/stm32l4xx_hal.c ****   * @retval tick value
 336:Drivers/STM32L4xx_HAL_Driver/Src/stm32l4xx_hal.c ****   */
 337:Drivers/STM32L4xx_HAL_Driver/Src/stm32l4xx_hal.c **** __weak uint32_t HAL_GetTick(void)
 338:Drivers/STM32L4xx_HAL_Driver/Src/stm32l4xx_hal.c **** {
 289              		.loc 1 338 0
 290              		.cfi_startproc
 291              		@ args = 0, pretend = 0, frame = 0
 292              		@ frame_needed = 0, uses_anonymous_args = 0
 293              		@ link register save eliminated.
 339:Drivers/STM32L4xx_HAL_Driver/Src/stm32l4xx_hal.c ****   return uwTick;
 294              		.loc 1 339 0
 295 0000 014B     		ldr	r3, .L31
 296 0002 1868     		ldr	r0, [r3]
 340:Drivers/STM32L4xx_HAL_Driver/Src/stm32l4xx_hal.c **** }
 297              		.loc 1 340 0
 298 0004 7047     		bx	lr
 299              	.L32:
 300 0006 00BF     		.align	2
 301              	.L31:
 302 0008 00000000 		.word	uwTick
 303              		.cfi_endproc
 304              	.LFE136:
 306              		.section	.text.HAL_GetTickPrio,"ax",%progbits
 307              		.align	1
 308              		.global	HAL_GetTickPrio
 309              		.syntax unified
 310              		.thumb
 311              		.thumb_func
 312              		.fpu fpv4-sp-d16
 314              	HAL_GetTickPrio:
 315              	.LFB137:
 341:Drivers/STM32L4xx_HAL_Driver/Src/stm32l4xx_hal.c **** 
 342:Drivers/STM32L4xx_HAL_Driver/Src/stm32l4xx_hal.c **** /**
 343:Drivers/STM32L4xx_HAL_Driver/Src/stm32l4xx_hal.c ****   * @brief This function returns a tick priority.
 344:Drivers/STM32L4xx_HAL_Driver/Src/stm32l4xx_hal.c ****   * @retval tick priority
 345:Drivers/STM32L4xx_HAL_Driver/Src/stm32l4xx_hal.c ****   */
 346:Drivers/STM32L4xx_HAL_Driver/Src/stm32l4xx_hal.c **** uint32_t HAL_GetTickPrio(void)
 347:Drivers/STM32L4xx_HAL_Driver/Src/stm32l4xx_hal.c **** {
 316              		.loc 1 347 0
 317              		.cfi_startproc
 318              		@ args = 0, pretend = 0, frame = 0
 319              		@ frame_needed = 0, uses_anonymous_args = 0
 320              		@ link register save eliminated.
 348:Drivers/STM32L4xx_HAL_Driver/Src/stm32l4xx_hal.c ****   return uwTickPrio;
 349:Drivers/STM32L4xx_HAL_Driver/Src/stm32l4xx_hal.c **** }
 321              		.loc 1 349 0
 322 0000 014B     		ldr	r3, .L34
ARM GAS  /var/folders/k_/d4dbklhx7q1fs9lh20k9kt840000gn/T//ccmJo6fc.s 			page 13


 323 0002 1868     		ldr	r0, [r3]
 324 0004 7047     		bx	lr
 325              	.L35:
 326 0006 00BF     		.align	2
 327              	.L34:
 328 0008 00000000 		.word	.LANCHOR1
 329              		.cfi_endproc
 330              	.LFE137:
 332              		.section	.text.HAL_SetTickFreq,"ax",%progbits
 333              		.align	1
 334              		.global	HAL_SetTickFreq
 335              		.syntax unified
 336              		.thumb
 337              		.thumb_func
 338              		.fpu fpv4-sp-d16
 340              	HAL_SetTickFreq:
 341              	.LFB138:
 350:Drivers/STM32L4xx_HAL_Driver/Src/stm32l4xx_hal.c **** 
 351:Drivers/STM32L4xx_HAL_Driver/Src/stm32l4xx_hal.c **** /**
 352:Drivers/STM32L4xx_HAL_Driver/Src/stm32l4xx_hal.c ****   * @brief Set new tick Freq.
 353:Drivers/STM32L4xx_HAL_Driver/Src/stm32l4xx_hal.c ****   * @param Freq tick frequency
 354:Drivers/STM32L4xx_HAL_Driver/Src/stm32l4xx_hal.c ****   * @retval HAL status
 355:Drivers/STM32L4xx_HAL_Driver/Src/stm32l4xx_hal.c ****   */
 356:Drivers/STM32L4xx_HAL_Driver/Src/stm32l4xx_hal.c **** HAL_StatusTypeDef HAL_SetTickFreq(uint32_t Freq)
 357:Drivers/STM32L4xx_HAL_Driver/Src/stm32l4xx_hal.c **** {
 342              		.loc 1 357 0
 343              		.cfi_startproc
 344              		@ args = 0, pretend = 0, frame = 0
 345              		@ frame_needed = 0, uses_anonymous_args = 0
 346              	.LVL15:
 358:Drivers/STM32L4xx_HAL_Driver/Src/stm32l4xx_hal.c ****   HAL_StatusTypeDef status  = HAL_OK;
 359:Drivers/STM32L4xx_HAL_Driver/Src/stm32l4xx_hal.c ****   assert_param(IS_TICKFREQ(Freq));
 360:Drivers/STM32L4xx_HAL_Driver/Src/stm32l4xx_hal.c **** 
 361:Drivers/STM32L4xx_HAL_Driver/Src/stm32l4xx_hal.c ****   if (uwTickFreq != Freq)
 347              		.loc 1 361 0
 348 0000 094B     		ldr	r3, .L43
 349 0002 1B68     		ldr	r3, [r3]
 350 0004 8342     		cmp	r3, r0
 351 0006 0BD0     		beq	.L38
 357:Drivers/STM32L4xx_HAL_Driver/Src/stm32l4xx_hal.c ****   HAL_StatusTypeDef status  = HAL_OK;
 352              		.loc 1 357 0
 353 0008 10B5     		push	{r4, lr}
 354              	.LCFI3:
 355              		.cfi_def_cfa_offset 8
 356              		.cfi_offset 4, -8
 357              		.cfi_offset 14, -4
 358 000a 0446     		mov	r4, r0
 362:Drivers/STM32L4xx_HAL_Driver/Src/stm32l4xx_hal.c ****   {
 363:Drivers/STM32L4xx_HAL_Driver/Src/stm32l4xx_hal.c ****     /* Apply the new tick Freq  */
 364:Drivers/STM32L4xx_HAL_Driver/Src/stm32l4xx_hal.c ****     status = HAL_InitTick(uwTickPrio);
 359              		.loc 1 364 0
 360 000c 074B     		ldr	r3, .L43+4
 361 000e 1868     		ldr	r0, [r3]
 362              	.LVL16:
 363 0010 FFF7FEFF 		bl	HAL_InitTick
 364              	.LVL17:
 365:Drivers/STM32L4xx_HAL_Driver/Src/stm32l4xx_hal.c ****     if (status == HAL_OK)
ARM GAS  /var/folders/k_/d4dbklhx7q1fs9lh20k9kt840000gn/T//ccmJo6fc.s 			page 14


 365              		.loc 1 365 0
 366 0014 0346     		mov	r3, r0
 367 0016 08B9     		cbnz	r0, .L37
 366:Drivers/STM32L4xx_HAL_Driver/Src/stm32l4xx_hal.c ****     {
 367:Drivers/STM32L4xx_HAL_Driver/Src/stm32l4xx_hal.c ****       uwTickFreq = Freq;
 368              		.loc 1 367 0
 369 0018 034A     		ldr	r2, .L43
 370 001a 1460     		str	r4, [r2]
 371              	.L37:
 372              	.LVL18:
 368:Drivers/STM32L4xx_HAL_Driver/Src/stm32l4xx_hal.c ****     }
 369:Drivers/STM32L4xx_HAL_Driver/Src/stm32l4xx_hal.c ****   }
 370:Drivers/STM32L4xx_HAL_Driver/Src/stm32l4xx_hal.c **** 
 371:Drivers/STM32L4xx_HAL_Driver/Src/stm32l4xx_hal.c ****   return status;
 372:Drivers/STM32L4xx_HAL_Driver/Src/stm32l4xx_hal.c **** }
 373              		.loc 1 372 0
 374 001c 1846     		mov	r0, r3
 375 001e 10BD     		pop	{r4, pc}
 376              	.LVL19:
 377              	.L38:
 378              	.LCFI4:
 379              		.cfi_def_cfa_offset 0
 380              		.cfi_restore 4
 381              		.cfi_restore 14
 358:Drivers/STM32L4xx_HAL_Driver/Src/stm32l4xx_hal.c ****   assert_param(IS_TICKFREQ(Freq));
 382              		.loc 1 358 0
 383 0020 0023     		movs	r3, #0
 384              	.LVL20:
 385              		.loc 1 372 0
 386 0022 1846     		mov	r0, r3
 387              	.LVL21:
 388 0024 7047     		bx	lr
 389              	.L44:
 390 0026 00BF     		.align	2
 391              	.L43:
 392 0028 00000000 		.word	.LANCHOR0
 393 002c 00000000 		.word	.LANCHOR1
 394              		.cfi_endproc
 395              	.LFE138:
 397              		.section	.text.HAL_GetTickFreq,"ax",%progbits
 398              		.align	1
 399              		.global	HAL_GetTickFreq
 400              		.syntax unified
 401              		.thumb
 402              		.thumb_func
 403              		.fpu fpv4-sp-d16
 405              	HAL_GetTickFreq:
 406              	.LFB139:
 373:Drivers/STM32L4xx_HAL_Driver/Src/stm32l4xx_hal.c **** 
 374:Drivers/STM32L4xx_HAL_Driver/Src/stm32l4xx_hal.c **** /**
 375:Drivers/STM32L4xx_HAL_Driver/Src/stm32l4xx_hal.c ****   * @brief Return tick frequency.
 376:Drivers/STM32L4xx_HAL_Driver/Src/stm32l4xx_hal.c ****   * @retval tick period in Hz
 377:Drivers/STM32L4xx_HAL_Driver/Src/stm32l4xx_hal.c ****   */
 378:Drivers/STM32L4xx_HAL_Driver/Src/stm32l4xx_hal.c **** uint32_t HAL_GetTickFreq(void)
 379:Drivers/STM32L4xx_HAL_Driver/Src/stm32l4xx_hal.c **** {
 407              		.loc 1 379 0
 408              		.cfi_startproc
ARM GAS  /var/folders/k_/d4dbklhx7q1fs9lh20k9kt840000gn/T//ccmJo6fc.s 			page 15


 409              		@ args = 0, pretend = 0, frame = 0
 410              		@ frame_needed = 0, uses_anonymous_args = 0
 411              		@ link register save eliminated.
 380:Drivers/STM32L4xx_HAL_Driver/Src/stm32l4xx_hal.c ****   return uwTickFreq;
 381:Drivers/STM32L4xx_HAL_Driver/Src/stm32l4xx_hal.c **** }
 412              		.loc 1 381 0
 413 0000 014B     		ldr	r3, .L46
 414 0002 1868     		ldr	r0, [r3]
 415 0004 7047     		bx	lr
 416              	.L47:
 417 0006 00BF     		.align	2
 418              	.L46:
 419 0008 00000000 		.word	.LANCHOR0
 420              		.cfi_endproc
 421              	.LFE139:
 423              		.section	.text.HAL_Delay,"ax",%progbits
 424              		.align	1
 425              		.weak	HAL_Delay
 426              		.syntax unified
 427              		.thumb
 428              		.thumb_func
 429              		.fpu fpv4-sp-d16
 431              	HAL_Delay:
 432              	.LFB140:
 382:Drivers/STM32L4xx_HAL_Driver/Src/stm32l4xx_hal.c **** 
 383:Drivers/STM32L4xx_HAL_Driver/Src/stm32l4xx_hal.c **** /**
 384:Drivers/STM32L4xx_HAL_Driver/Src/stm32l4xx_hal.c ****   * @brief This function provides minimum delay (in milliseconds) based
 385:Drivers/STM32L4xx_HAL_Driver/Src/stm32l4xx_hal.c ****   *        on variable incremented.
 386:Drivers/STM32L4xx_HAL_Driver/Src/stm32l4xx_hal.c ****   * @note In the default implementation , SysTick timer is the source of time base.
 387:Drivers/STM32L4xx_HAL_Driver/Src/stm32l4xx_hal.c ****   *       It is used to generate interrupts at regular time intervals where uwTick
 388:Drivers/STM32L4xx_HAL_Driver/Src/stm32l4xx_hal.c ****   *       is incremented.
 389:Drivers/STM32L4xx_HAL_Driver/Src/stm32l4xx_hal.c ****   * @note This function is declared as __weak to be overwritten in case of other
 390:Drivers/STM32L4xx_HAL_Driver/Src/stm32l4xx_hal.c ****   *       implementations in user file.
 391:Drivers/STM32L4xx_HAL_Driver/Src/stm32l4xx_hal.c ****   * @param Delay  specifies the delay time length, in milliseconds.
 392:Drivers/STM32L4xx_HAL_Driver/Src/stm32l4xx_hal.c ****   * @retval None
 393:Drivers/STM32L4xx_HAL_Driver/Src/stm32l4xx_hal.c ****   */
 394:Drivers/STM32L4xx_HAL_Driver/Src/stm32l4xx_hal.c **** __weak void HAL_Delay(uint32_t Delay)
 395:Drivers/STM32L4xx_HAL_Driver/Src/stm32l4xx_hal.c **** {
 433              		.loc 1 395 0
 434              		.cfi_startproc
 435              		@ args = 0, pretend = 0, frame = 0
 436              		@ frame_needed = 0, uses_anonymous_args = 0
 437              	.LVL22:
 438 0000 38B5     		push	{r3, r4, r5, lr}
 439              	.LCFI5:
 440              		.cfi_def_cfa_offset 16
 441              		.cfi_offset 3, -16
 442              		.cfi_offset 4, -12
 443              		.cfi_offset 5, -8
 444              		.cfi_offset 14, -4
 445 0002 0446     		mov	r4, r0
 396:Drivers/STM32L4xx_HAL_Driver/Src/stm32l4xx_hal.c ****   uint32_t tickstart = HAL_GetTick();
 446              		.loc 1 396 0
 447 0004 FFF7FEFF 		bl	HAL_GetTick
 448              	.LVL23:
 449 0008 0546     		mov	r5, r0
 450              	.LVL24:
ARM GAS  /var/folders/k_/d4dbklhx7q1fs9lh20k9kt840000gn/T//ccmJo6fc.s 			page 16


 397:Drivers/STM32L4xx_HAL_Driver/Src/stm32l4xx_hal.c ****   uint32_t wait = Delay;
 398:Drivers/STM32L4xx_HAL_Driver/Src/stm32l4xx_hal.c **** 
 399:Drivers/STM32L4xx_HAL_Driver/Src/stm32l4xx_hal.c ****   /* Add a period to guaranty minimum wait */
 400:Drivers/STM32L4xx_HAL_Driver/Src/stm32l4xx_hal.c ****   if (wait < HAL_MAX_DELAY)
 451              		.loc 1 400 0
 452 000a B4F1FF3F 		cmp	r4, #-1
 453 000e 02D0     		beq	.L50
 401:Drivers/STM32L4xx_HAL_Driver/Src/stm32l4xx_hal.c ****   {
 402:Drivers/STM32L4xx_HAL_Driver/Src/stm32l4xx_hal.c ****     wait += (uint32_t)(uwTickFreq);
 454              		.loc 1 402 0
 455 0010 044B     		ldr	r3, .L52
 456 0012 1B68     		ldr	r3, [r3]
 457 0014 1C44     		add	r4, r4, r3
 458              	.LVL25:
 459              	.L50:
 403:Drivers/STM32L4xx_HAL_Driver/Src/stm32l4xx_hal.c ****   }
 404:Drivers/STM32L4xx_HAL_Driver/Src/stm32l4xx_hal.c **** 
 405:Drivers/STM32L4xx_HAL_Driver/Src/stm32l4xx_hal.c ****   while((HAL_GetTick() - tickstart) < wait)
 460              		.loc 1 405 0 discriminator 1
 461 0016 FFF7FEFF 		bl	HAL_GetTick
 462              	.LVL26:
 463 001a 401B     		subs	r0, r0, r5
 464 001c A042     		cmp	r0, r4
 465 001e FAD3     		bcc	.L50
 406:Drivers/STM32L4xx_HAL_Driver/Src/stm32l4xx_hal.c ****   {
 407:Drivers/STM32L4xx_HAL_Driver/Src/stm32l4xx_hal.c ****   }
 408:Drivers/STM32L4xx_HAL_Driver/Src/stm32l4xx_hal.c **** }
 466              		.loc 1 408 0
 467 0020 38BD     		pop	{r3, r4, r5, pc}
 468              	.LVL27:
 469              	.L53:
 470 0022 00BF     		.align	2
 471              	.L52:
 472 0024 00000000 		.word	.LANCHOR0
 473              		.cfi_endproc
 474              	.LFE140:
 476              		.section	.text.HAL_SuspendTick,"ax",%progbits
 477              		.align	1
 478              		.weak	HAL_SuspendTick
 479              		.syntax unified
 480              		.thumb
 481              		.thumb_func
 482              		.fpu fpv4-sp-d16
 484              	HAL_SuspendTick:
 485              	.LFB141:
 409:Drivers/STM32L4xx_HAL_Driver/Src/stm32l4xx_hal.c **** 
 410:Drivers/STM32L4xx_HAL_Driver/Src/stm32l4xx_hal.c **** /**
 411:Drivers/STM32L4xx_HAL_Driver/Src/stm32l4xx_hal.c ****   * @brief Suspend Tick increment.
 412:Drivers/STM32L4xx_HAL_Driver/Src/stm32l4xx_hal.c ****   * @note In the default implementation , SysTick timer is the source of time base. It is
 413:Drivers/STM32L4xx_HAL_Driver/Src/stm32l4xx_hal.c ****   *       used to generate interrupts at regular time intervals. Once HAL_SuspendTick()
 414:Drivers/STM32L4xx_HAL_Driver/Src/stm32l4xx_hal.c ****   *       is called, the SysTick interrupt will be disabled and so Tick increment
 415:Drivers/STM32L4xx_HAL_Driver/Src/stm32l4xx_hal.c ****   *       is suspended.
 416:Drivers/STM32L4xx_HAL_Driver/Src/stm32l4xx_hal.c ****   * @note This function is declared as __weak to be overwritten in case of other
 417:Drivers/STM32L4xx_HAL_Driver/Src/stm32l4xx_hal.c ****   *       implementations in user file.
 418:Drivers/STM32L4xx_HAL_Driver/Src/stm32l4xx_hal.c ****   * @retval None
 419:Drivers/STM32L4xx_HAL_Driver/Src/stm32l4xx_hal.c ****   */
 420:Drivers/STM32L4xx_HAL_Driver/Src/stm32l4xx_hal.c **** __weak void HAL_SuspendTick(void)
ARM GAS  /var/folders/k_/d4dbklhx7q1fs9lh20k9kt840000gn/T//ccmJo6fc.s 			page 17


 421:Drivers/STM32L4xx_HAL_Driver/Src/stm32l4xx_hal.c **** {
 486              		.loc 1 421 0
 487              		.cfi_startproc
 488              		@ args = 0, pretend = 0, frame = 0
 489              		@ frame_needed = 0, uses_anonymous_args = 0
 490              		@ link register save eliminated.
 422:Drivers/STM32L4xx_HAL_Driver/Src/stm32l4xx_hal.c ****   /* Disable SysTick Interrupt */
 423:Drivers/STM32L4xx_HAL_Driver/Src/stm32l4xx_hal.c ****   SysTick->CTRL &= ~SysTick_CTRL_TICKINT_Msk;
 491              		.loc 1 423 0
 492 0000 024A     		ldr	r2, .L55
 493 0002 1368     		ldr	r3, [r2]
 494 0004 23F00203 		bic	r3, r3, #2
 495 0008 1360     		str	r3, [r2]
 424:Drivers/STM32L4xx_HAL_Driver/Src/stm32l4xx_hal.c **** }
 496              		.loc 1 424 0
 497 000a 7047     		bx	lr
 498              	.L56:
 499              		.align	2
 500              	.L55:
 501 000c 10E000E0 		.word	-536813552
 502              		.cfi_endproc
 503              	.LFE141:
 505              		.section	.text.HAL_ResumeTick,"ax",%progbits
 506              		.align	1
 507              		.weak	HAL_ResumeTick
 508              		.syntax unified
 509              		.thumb
 510              		.thumb_func
 511              		.fpu fpv4-sp-d16
 513              	HAL_ResumeTick:
 514              	.LFB142:
 425:Drivers/STM32L4xx_HAL_Driver/Src/stm32l4xx_hal.c **** 
 426:Drivers/STM32L4xx_HAL_Driver/Src/stm32l4xx_hal.c **** /**
 427:Drivers/STM32L4xx_HAL_Driver/Src/stm32l4xx_hal.c ****   * @brief Resume Tick increment.
 428:Drivers/STM32L4xx_HAL_Driver/Src/stm32l4xx_hal.c ****   * @note In the default implementation , SysTick timer is the source of time base. It is
 429:Drivers/STM32L4xx_HAL_Driver/Src/stm32l4xx_hal.c ****   *       used to generate interrupts at regular time intervals. Once HAL_ResumeTick()
 430:Drivers/STM32L4xx_HAL_Driver/Src/stm32l4xx_hal.c ****   *       is called, the SysTick interrupt will be enabled and so Tick increment
 431:Drivers/STM32L4xx_HAL_Driver/Src/stm32l4xx_hal.c ****   *       is resumed.
 432:Drivers/STM32L4xx_HAL_Driver/Src/stm32l4xx_hal.c ****   * @note This function is declared as __weak to be overwritten in case of other
 433:Drivers/STM32L4xx_HAL_Driver/Src/stm32l4xx_hal.c ****   *       implementations in user file.
 434:Drivers/STM32L4xx_HAL_Driver/Src/stm32l4xx_hal.c ****   * @retval None
 435:Drivers/STM32L4xx_HAL_Driver/Src/stm32l4xx_hal.c ****   */
 436:Drivers/STM32L4xx_HAL_Driver/Src/stm32l4xx_hal.c **** __weak void HAL_ResumeTick(void)
 437:Drivers/STM32L4xx_HAL_Driver/Src/stm32l4xx_hal.c **** {
 515              		.loc 1 437 0
 516              		.cfi_startproc
 517              		@ args = 0, pretend = 0, frame = 0
 518              		@ frame_needed = 0, uses_anonymous_args = 0
 519              		@ link register save eliminated.
 438:Drivers/STM32L4xx_HAL_Driver/Src/stm32l4xx_hal.c ****   /* Enable SysTick Interrupt */
 439:Drivers/STM32L4xx_HAL_Driver/Src/stm32l4xx_hal.c ****   SysTick->CTRL  |= SysTick_CTRL_TICKINT_Msk;
 520              		.loc 1 439 0
 521 0000 024A     		ldr	r2, .L58
 522 0002 1368     		ldr	r3, [r2]
 523 0004 43F00203 		orr	r3, r3, #2
 524 0008 1360     		str	r3, [r2]
 440:Drivers/STM32L4xx_HAL_Driver/Src/stm32l4xx_hal.c **** }
ARM GAS  /var/folders/k_/d4dbklhx7q1fs9lh20k9kt840000gn/T//ccmJo6fc.s 			page 18


 525              		.loc 1 440 0
 526 000a 7047     		bx	lr
 527              	.L59:
 528              		.align	2
 529              	.L58:
 530 000c 10E000E0 		.word	-536813552
 531              		.cfi_endproc
 532              	.LFE142:
 534              		.section	.text.HAL_GetHalVersion,"ax",%progbits
 535              		.align	1
 536              		.global	HAL_GetHalVersion
 537              		.syntax unified
 538              		.thumb
 539              		.thumb_func
 540              		.fpu fpv4-sp-d16
 542              	HAL_GetHalVersion:
 543              	.LFB143:
 441:Drivers/STM32L4xx_HAL_Driver/Src/stm32l4xx_hal.c **** 
 442:Drivers/STM32L4xx_HAL_Driver/Src/stm32l4xx_hal.c **** /**
 443:Drivers/STM32L4xx_HAL_Driver/Src/stm32l4xx_hal.c ****   * @brief  Return the HAL revision.
 444:Drivers/STM32L4xx_HAL_Driver/Src/stm32l4xx_hal.c ****   * @retval version : 0xXYZR (8bits for each decimal, R for RC)
 445:Drivers/STM32L4xx_HAL_Driver/Src/stm32l4xx_hal.c ****   */
 446:Drivers/STM32L4xx_HAL_Driver/Src/stm32l4xx_hal.c **** uint32_t HAL_GetHalVersion(void)
 447:Drivers/STM32L4xx_HAL_Driver/Src/stm32l4xx_hal.c **** {
 544              		.loc 1 447 0
 545              		.cfi_startproc
 546              		@ args = 0, pretend = 0, frame = 0
 547              		@ frame_needed = 0, uses_anonymous_args = 0
 548              		@ link register save eliminated.
 448:Drivers/STM32L4xx_HAL_Driver/Src/stm32l4xx_hal.c ****   return STM32L4XX_HAL_VERSION;
 449:Drivers/STM32L4xx_HAL_Driver/Src/stm32l4xx_hal.c **** }
 549              		.loc 1 449 0
 550 0000 0048     		ldr	r0, .L61
 551 0002 7047     		bx	lr
 552              	.L62:
 553              		.align	2
 554              	.L61:
 555 0004 00010B01 		.word	17498368
 556              		.cfi_endproc
 557              	.LFE143:
 559              		.section	.text.HAL_GetREVID,"ax",%progbits
 560              		.align	1
 561              		.global	HAL_GetREVID
 562              		.syntax unified
 563              		.thumb
 564              		.thumb_func
 565              		.fpu fpv4-sp-d16
 567              	HAL_GetREVID:
 568              	.LFB144:
 450:Drivers/STM32L4xx_HAL_Driver/Src/stm32l4xx_hal.c **** 
 451:Drivers/STM32L4xx_HAL_Driver/Src/stm32l4xx_hal.c **** /**
 452:Drivers/STM32L4xx_HAL_Driver/Src/stm32l4xx_hal.c ****   * @brief  Return the device revision identifier.
 453:Drivers/STM32L4xx_HAL_Driver/Src/stm32l4xx_hal.c ****   * @retval Device revision identifier
 454:Drivers/STM32L4xx_HAL_Driver/Src/stm32l4xx_hal.c ****   */
 455:Drivers/STM32L4xx_HAL_Driver/Src/stm32l4xx_hal.c **** uint32_t HAL_GetREVID(void)
 456:Drivers/STM32L4xx_HAL_Driver/Src/stm32l4xx_hal.c **** {
 569              		.loc 1 456 0
ARM GAS  /var/folders/k_/d4dbklhx7q1fs9lh20k9kt840000gn/T//ccmJo6fc.s 			page 19


 570              		.cfi_startproc
 571              		@ args = 0, pretend = 0, frame = 0
 572              		@ frame_needed = 0, uses_anonymous_args = 0
 573              		@ link register save eliminated.
 457:Drivers/STM32L4xx_HAL_Driver/Src/stm32l4xx_hal.c ****   return((DBGMCU->IDCODE & DBGMCU_IDCODE_REV_ID) >> 16);
 574              		.loc 1 457 0
 575 0000 014B     		ldr	r3, .L64
 576 0002 1868     		ldr	r0, [r3]
 458:Drivers/STM32L4xx_HAL_Driver/Src/stm32l4xx_hal.c **** }
 577              		.loc 1 458 0
 578 0004 000C     		lsrs	r0, r0, #16
 579 0006 7047     		bx	lr
 580              	.L65:
 581              		.align	2
 582              	.L64:
 583 0008 002004E0 		.word	-536600576
 584              		.cfi_endproc
 585              	.LFE144:
 587              		.section	.text.HAL_GetDEVID,"ax",%progbits
 588              		.align	1
 589              		.global	HAL_GetDEVID
 590              		.syntax unified
 591              		.thumb
 592              		.thumb_func
 593              		.fpu fpv4-sp-d16
 595              	HAL_GetDEVID:
 596              	.LFB145:
 459:Drivers/STM32L4xx_HAL_Driver/Src/stm32l4xx_hal.c **** 
 460:Drivers/STM32L4xx_HAL_Driver/Src/stm32l4xx_hal.c **** /**
 461:Drivers/STM32L4xx_HAL_Driver/Src/stm32l4xx_hal.c ****   * @brief  Return the device identifier.
 462:Drivers/STM32L4xx_HAL_Driver/Src/stm32l4xx_hal.c ****   * @retval Device identifier
 463:Drivers/STM32L4xx_HAL_Driver/Src/stm32l4xx_hal.c ****   */
 464:Drivers/STM32L4xx_HAL_Driver/Src/stm32l4xx_hal.c **** uint32_t HAL_GetDEVID(void)
 465:Drivers/STM32L4xx_HAL_Driver/Src/stm32l4xx_hal.c **** {
 597              		.loc 1 465 0
 598              		.cfi_startproc
 599              		@ args = 0, pretend = 0, frame = 0
 600              		@ frame_needed = 0, uses_anonymous_args = 0
 601              		@ link register save eliminated.
 466:Drivers/STM32L4xx_HAL_Driver/Src/stm32l4xx_hal.c ****   return(DBGMCU->IDCODE & DBGMCU_IDCODE_DEV_ID);
 602              		.loc 1 466 0
 603 0000 024B     		ldr	r3, .L67
 604 0002 1868     		ldr	r0, [r3]
 467:Drivers/STM32L4xx_HAL_Driver/Src/stm32l4xx_hal.c **** }
 605              		.loc 1 467 0
 606 0004 C0F30B00 		ubfx	r0, r0, #0, #12
 607 0008 7047     		bx	lr
 608              	.L68:
 609 000a 00BF     		.align	2
 610              	.L67:
 611 000c 002004E0 		.word	-536600576
 612              		.cfi_endproc
 613              	.LFE145:
 615              		.section	.text.HAL_GetUIDw0,"ax",%progbits
 616              		.align	1
 617              		.global	HAL_GetUIDw0
 618              		.syntax unified
ARM GAS  /var/folders/k_/d4dbklhx7q1fs9lh20k9kt840000gn/T//ccmJo6fc.s 			page 20


 619              		.thumb
 620              		.thumb_func
 621              		.fpu fpv4-sp-d16
 623              	HAL_GetUIDw0:
 624              	.LFB146:
 468:Drivers/STM32L4xx_HAL_Driver/Src/stm32l4xx_hal.c **** 
 469:Drivers/STM32L4xx_HAL_Driver/Src/stm32l4xx_hal.c **** /**
 470:Drivers/STM32L4xx_HAL_Driver/Src/stm32l4xx_hal.c ****   * @brief  Return the first word of the unique device identifier (UID based on 96 bits)
 471:Drivers/STM32L4xx_HAL_Driver/Src/stm32l4xx_hal.c ****   * @retval Device identifier
 472:Drivers/STM32L4xx_HAL_Driver/Src/stm32l4xx_hal.c ****   */
 473:Drivers/STM32L4xx_HAL_Driver/Src/stm32l4xx_hal.c **** uint32_t HAL_GetUIDw0(void)
 474:Drivers/STM32L4xx_HAL_Driver/Src/stm32l4xx_hal.c **** {
 625              		.loc 1 474 0
 626              		.cfi_startproc
 627              		@ args = 0, pretend = 0, frame = 0
 628              		@ frame_needed = 0, uses_anonymous_args = 0
 629              		@ link register save eliminated.
 475:Drivers/STM32L4xx_HAL_Driver/Src/stm32l4xx_hal.c ****   return(READ_REG(*((uint32_t *)UID_BASE)));
 476:Drivers/STM32L4xx_HAL_Driver/Src/stm32l4xx_hal.c **** }
 630              		.loc 1 476 0
 631 0000 014B     		ldr	r3, .L70
 632 0002 1868     		ldr	r0, [r3]
 633 0004 7047     		bx	lr
 634              	.L71:
 635 0006 00BF     		.align	2
 636              	.L70:
 637 0008 9075FF1F 		.word	536835472
 638              		.cfi_endproc
 639              	.LFE146:
 641              		.section	.text.HAL_GetUIDw1,"ax",%progbits
 642              		.align	1
 643              		.global	HAL_GetUIDw1
 644              		.syntax unified
 645              		.thumb
 646              		.thumb_func
 647              		.fpu fpv4-sp-d16
 649              	HAL_GetUIDw1:
 650              	.LFB147:
 477:Drivers/STM32L4xx_HAL_Driver/Src/stm32l4xx_hal.c **** 
 478:Drivers/STM32L4xx_HAL_Driver/Src/stm32l4xx_hal.c **** /**
 479:Drivers/STM32L4xx_HAL_Driver/Src/stm32l4xx_hal.c ****   * @brief  Return the second word of the unique device identifier (UID based on 96 bits)
 480:Drivers/STM32L4xx_HAL_Driver/Src/stm32l4xx_hal.c ****   * @retval Device identifier
 481:Drivers/STM32L4xx_HAL_Driver/Src/stm32l4xx_hal.c ****   */
 482:Drivers/STM32L4xx_HAL_Driver/Src/stm32l4xx_hal.c **** uint32_t HAL_GetUIDw1(void)
 483:Drivers/STM32L4xx_HAL_Driver/Src/stm32l4xx_hal.c **** {
 651              		.loc 1 483 0
 652              		.cfi_startproc
 653              		@ args = 0, pretend = 0, frame = 0
 654              		@ frame_needed = 0, uses_anonymous_args = 0
 655              		@ link register save eliminated.
 484:Drivers/STM32L4xx_HAL_Driver/Src/stm32l4xx_hal.c ****   return(READ_REG(*((uint32_t *)(UID_BASE + 4U))));
 485:Drivers/STM32L4xx_HAL_Driver/Src/stm32l4xx_hal.c **** }
 656              		.loc 1 485 0
 657 0000 014B     		ldr	r3, .L73
 658 0002 1868     		ldr	r0, [r3]
 659 0004 7047     		bx	lr
 660              	.L74:
ARM GAS  /var/folders/k_/d4dbklhx7q1fs9lh20k9kt840000gn/T//ccmJo6fc.s 			page 21


 661 0006 00BF     		.align	2
 662              	.L73:
 663 0008 9475FF1F 		.word	536835476
 664              		.cfi_endproc
 665              	.LFE147:
 667              		.section	.text.HAL_GetUIDw2,"ax",%progbits
 668              		.align	1
 669              		.global	HAL_GetUIDw2
 670              		.syntax unified
 671              		.thumb
 672              		.thumb_func
 673              		.fpu fpv4-sp-d16
 675              	HAL_GetUIDw2:
 676              	.LFB148:
 486:Drivers/STM32L4xx_HAL_Driver/Src/stm32l4xx_hal.c **** 
 487:Drivers/STM32L4xx_HAL_Driver/Src/stm32l4xx_hal.c **** /**
 488:Drivers/STM32L4xx_HAL_Driver/Src/stm32l4xx_hal.c ****   * @brief  Return the third word of the unique device identifier (UID based on 96 bits)
 489:Drivers/STM32L4xx_HAL_Driver/Src/stm32l4xx_hal.c ****   * @retval Device identifier
 490:Drivers/STM32L4xx_HAL_Driver/Src/stm32l4xx_hal.c ****   */
 491:Drivers/STM32L4xx_HAL_Driver/Src/stm32l4xx_hal.c **** uint32_t HAL_GetUIDw2(void)
 492:Drivers/STM32L4xx_HAL_Driver/Src/stm32l4xx_hal.c **** {
 677              		.loc 1 492 0
 678              		.cfi_startproc
 679              		@ args = 0, pretend = 0, frame = 0
 680              		@ frame_needed = 0, uses_anonymous_args = 0
 681              		@ link register save eliminated.
 493:Drivers/STM32L4xx_HAL_Driver/Src/stm32l4xx_hal.c ****   return(READ_REG(*((uint32_t *)(UID_BASE + 8U))));
 494:Drivers/STM32L4xx_HAL_Driver/Src/stm32l4xx_hal.c **** }
 682              		.loc 1 494 0
 683 0000 014B     		ldr	r3, .L76
 684 0002 1868     		ldr	r0, [r3]
 685 0004 7047     		bx	lr
 686              	.L77:
 687 0006 00BF     		.align	2
 688              	.L76:
 689 0008 9875FF1F 		.word	536835480
 690              		.cfi_endproc
 691              	.LFE148:
 693              		.section	.text.HAL_DBGMCU_EnableDBGSleepMode,"ax",%progbits
 694              		.align	1
 695              		.global	HAL_DBGMCU_EnableDBGSleepMode
 696              		.syntax unified
 697              		.thumb
 698              		.thumb_func
 699              		.fpu fpv4-sp-d16
 701              	HAL_DBGMCU_EnableDBGSleepMode:
 702              	.LFB149:
 495:Drivers/STM32L4xx_HAL_Driver/Src/stm32l4xx_hal.c **** 
 496:Drivers/STM32L4xx_HAL_Driver/Src/stm32l4xx_hal.c **** /**
 497:Drivers/STM32L4xx_HAL_Driver/Src/stm32l4xx_hal.c ****   * @}
 498:Drivers/STM32L4xx_HAL_Driver/Src/stm32l4xx_hal.c ****   */
 499:Drivers/STM32L4xx_HAL_Driver/Src/stm32l4xx_hal.c **** 
 500:Drivers/STM32L4xx_HAL_Driver/Src/stm32l4xx_hal.c **** /** @defgroup HAL_Exported_Functions_Group3 HAL Debug functions
 501:Drivers/STM32L4xx_HAL_Driver/Src/stm32l4xx_hal.c ****  *  @brief    HAL Debug functions
 502:Drivers/STM32L4xx_HAL_Driver/Src/stm32l4xx_hal.c ****  *
 503:Drivers/STM32L4xx_HAL_Driver/Src/stm32l4xx_hal.c **** @verbatim
 504:Drivers/STM32L4xx_HAL_Driver/Src/stm32l4xx_hal.c ****  ===============================================================================
ARM GAS  /var/folders/k_/d4dbklhx7q1fs9lh20k9kt840000gn/T//ccmJo6fc.s 			page 22


 505:Drivers/STM32L4xx_HAL_Driver/Src/stm32l4xx_hal.c ****                       ##### HAL Debug functions #####
 506:Drivers/STM32L4xx_HAL_Driver/Src/stm32l4xx_hal.c ****  ===============================================================================
 507:Drivers/STM32L4xx_HAL_Driver/Src/stm32l4xx_hal.c ****     [..]  This section provides functions allowing to:
 508:Drivers/STM32L4xx_HAL_Driver/Src/stm32l4xx_hal.c ****       (+) Enable/Disable Debug module during SLEEP mode
 509:Drivers/STM32L4xx_HAL_Driver/Src/stm32l4xx_hal.c ****       (+) Enable/Disable Debug module during STOP0/STOP1/STOP2 modes
 510:Drivers/STM32L4xx_HAL_Driver/Src/stm32l4xx_hal.c ****       (+) Enable/Disable Debug module during STANDBY mode
 511:Drivers/STM32L4xx_HAL_Driver/Src/stm32l4xx_hal.c **** 
 512:Drivers/STM32L4xx_HAL_Driver/Src/stm32l4xx_hal.c **** @endverbatim
 513:Drivers/STM32L4xx_HAL_Driver/Src/stm32l4xx_hal.c ****   * @{
 514:Drivers/STM32L4xx_HAL_Driver/Src/stm32l4xx_hal.c ****   */
 515:Drivers/STM32L4xx_HAL_Driver/Src/stm32l4xx_hal.c **** 
 516:Drivers/STM32L4xx_HAL_Driver/Src/stm32l4xx_hal.c **** /**
 517:Drivers/STM32L4xx_HAL_Driver/Src/stm32l4xx_hal.c ****   * @brief  Enable the Debug Module during SLEEP mode.
 518:Drivers/STM32L4xx_HAL_Driver/Src/stm32l4xx_hal.c ****   * @retval None
 519:Drivers/STM32L4xx_HAL_Driver/Src/stm32l4xx_hal.c ****   */
 520:Drivers/STM32L4xx_HAL_Driver/Src/stm32l4xx_hal.c **** void HAL_DBGMCU_EnableDBGSleepMode(void)
 521:Drivers/STM32L4xx_HAL_Driver/Src/stm32l4xx_hal.c **** {
 703              		.loc 1 521 0
 704              		.cfi_startproc
 705              		@ args = 0, pretend = 0, frame = 0
 706              		@ frame_needed = 0, uses_anonymous_args = 0
 707              		@ link register save eliminated.
 522:Drivers/STM32L4xx_HAL_Driver/Src/stm32l4xx_hal.c ****   SET_BIT(DBGMCU->CR, DBGMCU_CR_DBG_SLEEP);
 708              		.loc 1 522 0
 709 0000 024A     		ldr	r2, .L79
 710 0002 5368     		ldr	r3, [r2, #4]
 711 0004 43F00103 		orr	r3, r3, #1
 712 0008 5360     		str	r3, [r2, #4]
 523:Drivers/STM32L4xx_HAL_Driver/Src/stm32l4xx_hal.c **** }
 713              		.loc 1 523 0
 714 000a 7047     		bx	lr
 715              	.L80:
 716              		.align	2
 717              	.L79:
 718 000c 002004E0 		.word	-536600576
 719              		.cfi_endproc
 720              	.LFE149:
 722              		.section	.text.HAL_DBGMCU_DisableDBGSleepMode,"ax",%progbits
 723              		.align	1
 724              		.global	HAL_DBGMCU_DisableDBGSleepMode
 725              		.syntax unified
 726              		.thumb
 727              		.thumb_func
 728              		.fpu fpv4-sp-d16
 730              	HAL_DBGMCU_DisableDBGSleepMode:
 731              	.LFB150:
 524:Drivers/STM32L4xx_HAL_Driver/Src/stm32l4xx_hal.c **** 
 525:Drivers/STM32L4xx_HAL_Driver/Src/stm32l4xx_hal.c **** /**
 526:Drivers/STM32L4xx_HAL_Driver/Src/stm32l4xx_hal.c ****   * @brief  Disable the Debug Module during SLEEP mode.
 527:Drivers/STM32L4xx_HAL_Driver/Src/stm32l4xx_hal.c ****   * @retval None
 528:Drivers/STM32L4xx_HAL_Driver/Src/stm32l4xx_hal.c ****   */
 529:Drivers/STM32L4xx_HAL_Driver/Src/stm32l4xx_hal.c **** void HAL_DBGMCU_DisableDBGSleepMode(void)
 530:Drivers/STM32L4xx_HAL_Driver/Src/stm32l4xx_hal.c **** {
 732              		.loc 1 530 0
 733              		.cfi_startproc
 734              		@ args = 0, pretend = 0, frame = 0
 735              		@ frame_needed = 0, uses_anonymous_args = 0
ARM GAS  /var/folders/k_/d4dbklhx7q1fs9lh20k9kt840000gn/T//ccmJo6fc.s 			page 23


 736              		@ link register save eliminated.
 531:Drivers/STM32L4xx_HAL_Driver/Src/stm32l4xx_hal.c ****   CLEAR_BIT(DBGMCU->CR, DBGMCU_CR_DBG_SLEEP);
 737              		.loc 1 531 0
 738 0000 024A     		ldr	r2, .L82
 739 0002 5368     		ldr	r3, [r2, #4]
 740 0004 23F00103 		bic	r3, r3, #1
 741 0008 5360     		str	r3, [r2, #4]
 532:Drivers/STM32L4xx_HAL_Driver/Src/stm32l4xx_hal.c **** }
 742              		.loc 1 532 0
 743 000a 7047     		bx	lr
 744              	.L83:
 745              		.align	2
 746              	.L82:
 747 000c 002004E0 		.word	-536600576
 748              		.cfi_endproc
 749              	.LFE150:
 751              		.section	.text.HAL_DBGMCU_EnableDBGStopMode,"ax",%progbits
 752              		.align	1
 753              		.global	HAL_DBGMCU_EnableDBGStopMode
 754              		.syntax unified
 755              		.thumb
 756              		.thumb_func
 757              		.fpu fpv4-sp-d16
 759              	HAL_DBGMCU_EnableDBGStopMode:
 760              	.LFB151:
 533:Drivers/STM32L4xx_HAL_Driver/Src/stm32l4xx_hal.c **** 
 534:Drivers/STM32L4xx_HAL_Driver/Src/stm32l4xx_hal.c **** /**
 535:Drivers/STM32L4xx_HAL_Driver/Src/stm32l4xx_hal.c ****   * @brief  Enable the Debug Module during STOP0/STOP1/STOP2 modes.
 536:Drivers/STM32L4xx_HAL_Driver/Src/stm32l4xx_hal.c ****   * @retval None
 537:Drivers/STM32L4xx_HAL_Driver/Src/stm32l4xx_hal.c ****   */
 538:Drivers/STM32L4xx_HAL_Driver/Src/stm32l4xx_hal.c **** void HAL_DBGMCU_EnableDBGStopMode(void)
 539:Drivers/STM32L4xx_HAL_Driver/Src/stm32l4xx_hal.c **** {
 761              		.loc 1 539 0
 762              		.cfi_startproc
 763              		@ args = 0, pretend = 0, frame = 0
 764              		@ frame_needed = 0, uses_anonymous_args = 0
 765              		@ link register save eliminated.
 540:Drivers/STM32L4xx_HAL_Driver/Src/stm32l4xx_hal.c ****   SET_BIT(DBGMCU->CR, DBGMCU_CR_DBG_STOP);
 766              		.loc 1 540 0
 767 0000 024A     		ldr	r2, .L85
 768 0002 5368     		ldr	r3, [r2, #4]
 769 0004 43F00203 		orr	r3, r3, #2
 770 0008 5360     		str	r3, [r2, #4]
 541:Drivers/STM32L4xx_HAL_Driver/Src/stm32l4xx_hal.c **** }
 771              		.loc 1 541 0
 772 000a 7047     		bx	lr
 773              	.L86:
 774              		.align	2
 775              	.L85:
 776 000c 002004E0 		.word	-536600576
 777              		.cfi_endproc
 778              	.LFE151:
 780              		.section	.text.HAL_DBGMCU_DisableDBGStopMode,"ax",%progbits
 781              		.align	1
 782              		.global	HAL_DBGMCU_DisableDBGStopMode
 783              		.syntax unified
 784              		.thumb
ARM GAS  /var/folders/k_/d4dbklhx7q1fs9lh20k9kt840000gn/T//ccmJo6fc.s 			page 24


 785              		.thumb_func
 786              		.fpu fpv4-sp-d16
 788              	HAL_DBGMCU_DisableDBGStopMode:
 789              	.LFB152:
 542:Drivers/STM32L4xx_HAL_Driver/Src/stm32l4xx_hal.c **** 
 543:Drivers/STM32L4xx_HAL_Driver/Src/stm32l4xx_hal.c **** /**
 544:Drivers/STM32L4xx_HAL_Driver/Src/stm32l4xx_hal.c ****   * @brief  Disable the Debug Module during STOP0/STOP1/STOP2 modes.
 545:Drivers/STM32L4xx_HAL_Driver/Src/stm32l4xx_hal.c ****   * @retval None
 546:Drivers/STM32L4xx_HAL_Driver/Src/stm32l4xx_hal.c ****   */
 547:Drivers/STM32L4xx_HAL_Driver/Src/stm32l4xx_hal.c **** void HAL_DBGMCU_DisableDBGStopMode(void)
 548:Drivers/STM32L4xx_HAL_Driver/Src/stm32l4xx_hal.c **** {
 790              		.loc 1 548 0
 791              		.cfi_startproc
 792              		@ args = 0, pretend = 0, frame = 0
 793              		@ frame_needed = 0, uses_anonymous_args = 0
 794              		@ link register save eliminated.
 549:Drivers/STM32L4xx_HAL_Driver/Src/stm32l4xx_hal.c ****   CLEAR_BIT(DBGMCU->CR, DBGMCU_CR_DBG_STOP);
 795              		.loc 1 549 0
 796 0000 024A     		ldr	r2, .L88
 797 0002 5368     		ldr	r3, [r2, #4]
 798 0004 23F00203 		bic	r3, r3, #2
 799 0008 5360     		str	r3, [r2, #4]
 550:Drivers/STM32L4xx_HAL_Driver/Src/stm32l4xx_hal.c **** }
 800              		.loc 1 550 0
 801 000a 7047     		bx	lr
 802              	.L89:
 803              		.align	2
 804              	.L88:
 805 000c 002004E0 		.word	-536600576
 806              		.cfi_endproc
 807              	.LFE152:
 809              		.section	.text.HAL_DBGMCU_EnableDBGStandbyMode,"ax",%progbits
 810              		.align	1
 811              		.global	HAL_DBGMCU_EnableDBGStandbyMode
 812              		.syntax unified
 813              		.thumb
 814              		.thumb_func
 815              		.fpu fpv4-sp-d16
 817              	HAL_DBGMCU_EnableDBGStandbyMode:
 818              	.LFB153:
 551:Drivers/STM32L4xx_HAL_Driver/Src/stm32l4xx_hal.c **** 
 552:Drivers/STM32L4xx_HAL_Driver/Src/stm32l4xx_hal.c **** /**
 553:Drivers/STM32L4xx_HAL_Driver/Src/stm32l4xx_hal.c ****   * @brief  Enable the Debug Module during STANDBY mode.
 554:Drivers/STM32L4xx_HAL_Driver/Src/stm32l4xx_hal.c ****   * @retval None
 555:Drivers/STM32L4xx_HAL_Driver/Src/stm32l4xx_hal.c ****   */
 556:Drivers/STM32L4xx_HAL_Driver/Src/stm32l4xx_hal.c **** void HAL_DBGMCU_EnableDBGStandbyMode(void)
 557:Drivers/STM32L4xx_HAL_Driver/Src/stm32l4xx_hal.c **** {
 819              		.loc 1 557 0
 820              		.cfi_startproc
 821              		@ args = 0, pretend = 0, frame = 0
 822              		@ frame_needed = 0, uses_anonymous_args = 0
 823              		@ link register save eliminated.
 558:Drivers/STM32L4xx_HAL_Driver/Src/stm32l4xx_hal.c ****   SET_BIT(DBGMCU->CR, DBGMCU_CR_DBG_STANDBY);
 824              		.loc 1 558 0
 825 0000 024A     		ldr	r2, .L91
 826 0002 5368     		ldr	r3, [r2, #4]
 827 0004 43F00403 		orr	r3, r3, #4
ARM GAS  /var/folders/k_/d4dbklhx7q1fs9lh20k9kt840000gn/T//ccmJo6fc.s 			page 25


 828 0008 5360     		str	r3, [r2, #4]
 559:Drivers/STM32L4xx_HAL_Driver/Src/stm32l4xx_hal.c **** }
 829              		.loc 1 559 0
 830 000a 7047     		bx	lr
 831              	.L92:
 832              		.align	2
 833              	.L91:
 834 000c 002004E0 		.word	-536600576
 835              		.cfi_endproc
 836              	.LFE153:
 838              		.section	.text.HAL_DBGMCU_DisableDBGStandbyMode,"ax",%progbits
 839              		.align	1
 840              		.global	HAL_DBGMCU_DisableDBGStandbyMode
 841              		.syntax unified
 842              		.thumb
 843              		.thumb_func
 844              		.fpu fpv4-sp-d16
 846              	HAL_DBGMCU_DisableDBGStandbyMode:
 847              	.LFB154:
 560:Drivers/STM32L4xx_HAL_Driver/Src/stm32l4xx_hal.c **** 
 561:Drivers/STM32L4xx_HAL_Driver/Src/stm32l4xx_hal.c **** /**
 562:Drivers/STM32L4xx_HAL_Driver/Src/stm32l4xx_hal.c ****   * @brief  Disable the Debug Module during STANDBY mode.
 563:Drivers/STM32L4xx_HAL_Driver/Src/stm32l4xx_hal.c ****   * @retval None
 564:Drivers/STM32L4xx_HAL_Driver/Src/stm32l4xx_hal.c ****   */
 565:Drivers/STM32L4xx_HAL_Driver/Src/stm32l4xx_hal.c **** void HAL_DBGMCU_DisableDBGStandbyMode(void)
 566:Drivers/STM32L4xx_HAL_Driver/Src/stm32l4xx_hal.c **** {
 848              		.loc 1 566 0
 849              		.cfi_startproc
 850              		@ args = 0, pretend = 0, frame = 0
 851              		@ frame_needed = 0, uses_anonymous_args = 0
 852              		@ link register save eliminated.
 567:Drivers/STM32L4xx_HAL_Driver/Src/stm32l4xx_hal.c ****   CLEAR_BIT(DBGMCU->CR, DBGMCU_CR_DBG_STANDBY);
 853              		.loc 1 567 0
 854 0000 024A     		ldr	r2, .L94
 855 0002 5368     		ldr	r3, [r2, #4]
 856 0004 23F00403 		bic	r3, r3, #4
 857 0008 5360     		str	r3, [r2, #4]
 568:Drivers/STM32L4xx_HAL_Driver/Src/stm32l4xx_hal.c **** }
 858              		.loc 1 568 0
 859 000a 7047     		bx	lr
 860              	.L95:
 861              		.align	2
 862              	.L94:
 863 000c 002004E0 		.word	-536600576
 864              		.cfi_endproc
 865              	.LFE154:
 867              		.section	.text.HAL_SYSCFG_SRAM2Erase,"ax",%progbits
 868              		.align	1
 869              		.global	HAL_SYSCFG_SRAM2Erase
 870              		.syntax unified
 871              		.thumb
 872              		.thumb_func
 873              		.fpu fpv4-sp-d16
 875              	HAL_SYSCFG_SRAM2Erase:
 876              	.LFB155:
 569:Drivers/STM32L4xx_HAL_Driver/Src/stm32l4xx_hal.c **** 
 570:Drivers/STM32L4xx_HAL_Driver/Src/stm32l4xx_hal.c **** /**
ARM GAS  /var/folders/k_/d4dbklhx7q1fs9lh20k9kt840000gn/T//ccmJo6fc.s 			page 26


 571:Drivers/STM32L4xx_HAL_Driver/Src/stm32l4xx_hal.c ****   * @}
 572:Drivers/STM32L4xx_HAL_Driver/Src/stm32l4xx_hal.c ****   */
 573:Drivers/STM32L4xx_HAL_Driver/Src/stm32l4xx_hal.c **** 
 574:Drivers/STM32L4xx_HAL_Driver/Src/stm32l4xx_hal.c **** /** @defgroup HAL_Exported_Functions_Group4 HAL SYSCFG configuration functions
 575:Drivers/STM32L4xx_HAL_Driver/Src/stm32l4xx_hal.c ****  *  @brief    HAL SYSCFG configuration functions
 576:Drivers/STM32L4xx_HAL_Driver/Src/stm32l4xx_hal.c ****  *
 577:Drivers/STM32L4xx_HAL_Driver/Src/stm32l4xx_hal.c **** @verbatim
 578:Drivers/STM32L4xx_HAL_Driver/Src/stm32l4xx_hal.c ****  ===============================================================================
 579:Drivers/STM32L4xx_HAL_Driver/Src/stm32l4xx_hal.c ****                       ##### HAL SYSCFG configuration functions #####
 580:Drivers/STM32L4xx_HAL_Driver/Src/stm32l4xx_hal.c ****  ===============================================================================
 581:Drivers/STM32L4xx_HAL_Driver/Src/stm32l4xx_hal.c ****     [..]  This section provides functions allowing to:
 582:Drivers/STM32L4xx_HAL_Driver/Src/stm32l4xx_hal.c ****       (+) Start a hardware SRAM2 erase operation
 583:Drivers/STM32L4xx_HAL_Driver/Src/stm32l4xx_hal.c ****       (+) Enable/Disable the Internal FLASH Bank Swapping
 584:Drivers/STM32L4xx_HAL_Driver/Src/stm32l4xx_hal.c ****       (+) Configure the Voltage reference buffer
 585:Drivers/STM32L4xx_HAL_Driver/Src/stm32l4xx_hal.c ****       (+) Enable/Disable the Voltage reference buffer
 586:Drivers/STM32L4xx_HAL_Driver/Src/stm32l4xx_hal.c ****       (+) Enable/Disable the I/O analog switch voltage booster
 587:Drivers/STM32L4xx_HAL_Driver/Src/stm32l4xx_hal.c **** 
 588:Drivers/STM32L4xx_HAL_Driver/Src/stm32l4xx_hal.c **** @endverbatim
 589:Drivers/STM32L4xx_HAL_Driver/Src/stm32l4xx_hal.c ****   * @{
 590:Drivers/STM32L4xx_HAL_Driver/Src/stm32l4xx_hal.c ****   */
 591:Drivers/STM32L4xx_HAL_Driver/Src/stm32l4xx_hal.c **** 
 592:Drivers/STM32L4xx_HAL_Driver/Src/stm32l4xx_hal.c **** /**
 593:Drivers/STM32L4xx_HAL_Driver/Src/stm32l4xx_hal.c ****   * @brief  Start a hardware SRAM2 erase operation.
 594:Drivers/STM32L4xx_HAL_Driver/Src/stm32l4xx_hal.c ****   * @note   As long as SRAM2 is not erased the SRAM2ER bit will be set.
 595:Drivers/STM32L4xx_HAL_Driver/Src/stm32l4xx_hal.c ****   *         This bit is automatically reset at the end of the SRAM2 erase operation.
 596:Drivers/STM32L4xx_HAL_Driver/Src/stm32l4xx_hal.c ****   * @retval None
 597:Drivers/STM32L4xx_HAL_Driver/Src/stm32l4xx_hal.c ****   */
 598:Drivers/STM32L4xx_HAL_Driver/Src/stm32l4xx_hal.c **** void HAL_SYSCFG_SRAM2Erase(void)
 599:Drivers/STM32L4xx_HAL_Driver/Src/stm32l4xx_hal.c **** {
 877              		.loc 1 599 0
 878              		.cfi_startproc
 879              		@ args = 0, pretend = 0, frame = 0
 880              		@ frame_needed = 0, uses_anonymous_args = 0
 881              		@ link register save eliminated.
 600:Drivers/STM32L4xx_HAL_Driver/Src/stm32l4xx_hal.c ****   /* unlock the write protection of the SRAM2ER bit */
 601:Drivers/STM32L4xx_HAL_Driver/Src/stm32l4xx_hal.c ****   SYSCFG->SKR = 0xCA;
 882              		.loc 1 601 0
 883 0000 054B     		ldr	r3, .L97
 884 0002 CA22     		movs	r2, #202
 885 0004 5A62     		str	r2, [r3, #36]
 602:Drivers/STM32L4xx_HAL_Driver/Src/stm32l4xx_hal.c ****   SYSCFG->SKR = 0x53;
 886              		.loc 1 602 0
 887 0006 5322     		movs	r2, #83
 888 0008 5A62     		str	r2, [r3, #36]
 603:Drivers/STM32L4xx_HAL_Driver/Src/stm32l4xx_hal.c ****   /* Starts a hardware SRAM2 erase operation*/
 604:Drivers/STM32L4xx_HAL_Driver/Src/stm32l4xx_hal.c ****   *(__IO uint32_t *) SCSR_SRAM2ER_BB = 0x00000001UL;
 889              		.loc 1 604 0
 890 000a A3F1FD23 		sub	r3, r3, #-50266880
 891 000e A3F56003 		sub	r3, r3, #14680064
 892 0012 0122     		movs	r2, #1
 893 0014 1A60     		str	r2, [r3]
 605:Drivers/STM32L4xx_HAL_Driver/Src/stm32l4xx_hal.c **** }
 894              		.loc 1 605 0
 895 0016 7047     		bx	lr
 896              	.L98:
 897              		.align	2
 898              	.L97:
ARM GAS  /var/folders/k_/d4dbklhx7q1fs9lh20k9kt840000gn/T//ccmJo6fc.s 			page 27


 899 0018 00000140 		.word	1073807360
 900              		.cfi_endproc
 901              	.LFE155:
 903              		.section	.text.HAL_SYSCFG_EnableMemorySwappingBank,"ax",%progbits
 904              		.align	1
 905              		.global	HAL_SYSCFG_EnableMemorySwappingBank
 906              		.syntax unified
 907              		.thumb
 908              		.thumb_func
 909              		.fpu fpv4-sp-d16
 911              	HAL_SYSCFG_EnableMemorySwappingBank:
 912              	.LFB156:
 606:Drivers/STM32L4xx_HAL_Driver/Src/stm32l4xx_hal.c **** 
 607:Drivers/STM32L4xx_HAL_Driver/Src/stm32l4xx_hal.c **** /**
 608:Drivers/STM32L4xx_HAL_Driver/Src/stm32l4xx_hal.c ****   * @brief  Enable the Internal FLASH Bank Swapping.
 609:Drivers/STM32L4xx_HAL_Driver/Src/stm32l4xx_hal.c ****   *
 610:Drivers/STM32L4xx_HAL_Driver/Src/stm32l4xx_hal.c ****   * @note   This function can be used only for STM32L4xx devices.
 611:Drivers/STM32L4xx_HAL_Driver/Src/stm32l4xx_hal.c ****   *
 612:Drivers/STM32L4xx_HAL_Driver/Src/stm32l4xx_hal.c ****   * @note   Flash Bank2 mapped at 0x08000000 (and aliased @0x00000000)
 613:Drivers/STM32L4xx_HAL_Driver/Src/stm32l4xx_hal.c ****   *         and Flash Bank1 mapped at 0x08100000 (and aliased at 0x00100000)
 614:Drivers/STM32L4xx_HAL_Driver/Src/stm32l4xx_hal.c ****   *
 615:Drivers/STM32L4xx_HAL_Driver/Src/stm32l4xx_hal.c ****   * @retval None
 616:Drivers/STM32L4xx_HAL_Driver/Src/stm32l4xx_hal.c ****   */
 617:Drivers/STM32L4xx_HAL_Driver/Src/stm32l4xx_hal.c **** void HAL_SYSCFG_EnableMemorySwappingBank(void)
 618:Drivers/STM32L4xx_HAL_Driver/Src/stm32l4xx_hal.c **** {
 913              		.loc 1 618 0
 914              		.cfi_startproc
 915              		@ args = 0, pretend = 0, frame = 0
 916              		@ frame_needed = 0, uses_anonymous_args = 0
 917              		@ link register save eliminated.
 619:Drivers/STM32L4xx_HAL_Driver/Src/stm32l4xx_hal.c ****   *(__IO uint32_t *)FB_MODE_BB = 0x00000001UL;
 918              		.loc 1 619 0
 919 0000 014B     		ldr	r3, .L100
 920 0002 0122     		movs	r2, #1
 921 0004 1A60     		str	r2, [r3]
 620:Drivers/STM32L4xx_HAL_Driver/Src/stm32l4xx_hal.c **** }
 922              		.loc 1 620 0
 923 0006 7047     		bx	lr
 924              	.L101:
 925              		.align	2
 926              	.L100:
 927 0008 20002042 		.word	1109393440
 928              		.cfi_endproc
 929              	.LFE156:
 931              		.section	.text.HAL_SYSCFG_DisableMemorySwappingBank,"ax",%progbits
 932              		.align	1
 933              		.global	HAL_SYSCFG_DisableMemorySwappingBank
 934              		.syntax unified
 935              		.thumb
 936              		.thumb_func
 937              		.fpu fpv4-sp-d16
 939              	HAL_SYSCFG_DisableMemorySwappingBank:
 940              	.LFB157:
 621:Drivers/STM32L4xx_HAL_Driver/Src/stm32l4xx_hal.c **** 
 622:Drivers/STM32L4xx_HAL_Driver/Src/stm32l4xx_hal.c **** /**
 623:Drivers/STM32L4xx_HAL_Driver/Src/stm32l4xx_hal.c ****   * @brief  Disable the Internal FLASH Bank Swapping.
 624:Drivers/STM32L4xx_HAL_Driver/Src/stm32l4xx_hal.c ****   *
ARM GAS  /var/folders/k_/d4dbklhx7q1fs9lh20k9kt840000gn/T//ccmJo6fc.s 			page 28


 625:Drivers/STM32L4xx_HAL_Driver/Src/stm32l4xx_hal.c ****   * @note   This function can be used only for STM32L4xx devices.
 626:Drivers/STM32L4xx_HAL_Driver/Src/stm32l4xx_hal.c ****   *
 627:Drivers/STM32L4xx_HAL_Driver/Src/stm32l4xx_hal.c ****   * @note   The default state : Flash Bank1 mapped at 0x08000000 (and aliased @0x0000 0000)
 628:Drivers/STM32L4xx_HAL_Driver/Src/stm32l4xx_hal.c ****   *         and Flash Bank2 mapped at 0x08100000 (and aliased at 0x00100000)
 629:Drivers/STM32L4xx_HAL_Driver/Src/stm32l4xx_hal.c ****   *
 630:Drivers/STM32L4xx_HAL_Driver/Src/stm32l4xx_hal.c ****   * @retval None
 631:Drivers/STM32L4xx_HAL_Driver/Src/stm32l4xx_hal.c ****   */
 632:Drivers/STM32L4xx_HAL_Driver/Src/stm32l4xx_hal.c **** void HAL_SYSCFG_DisableMemorySwappingBank(void)
 633:Drivers/STM32L4xx_HAL_Driver/Src/stm32l4xx_hal.c **** {
 941              		.loc 1 633 0
 942              		.cfi_startproc
 943              		@ args = 0, pretend = 0, frame = 0
 944              		@ frame_needed = 0, uses_anonymous_args = 0
 945              		@ link register save eliminated.
 634:Drivers/STM32L4xx_HAL_Driver/Src/stm32l4xx_hal.c **** 
 635:Drivers/STM32L4xx_HAL_Driver/Src/stm32l4xx_hal.c ****   *(__IO uint32_t *)FB_MODE_BB = 0x00000000UL;
 946              		.loc 1 635 0
 947 0000 014B     		ldr	r3, .L103
 948 0002 0022     		movs	r2, #0
 949 0004 1A60     		str	r2, [r3]
 636:Drivers/STM32L4xx_HAL_Driver/Src/stm32l4xx_hal.c **** }
 950              		.loc 1 636 0
 951 0006 7047     		bx	lr
 952              	.L104:
 953              		.align	2
 954              	.L103:
 955 0008 20002042 		.word	1109393440
 956              		.cfi_endproc
 957              	.LFE157:
 959              		.section	.text.HAL_SYSCFG_VREFBUF_VoltageScalingConfig,"ax",%progbits
 960              		.align	1
 961              		.global	HAL_SYSCFG_VREFBUF_VoltageScalingConfig
 962              		.syntax unified
 963              		.thumb
 964              		.thumb_func
 965              		.fpu fpv4-sp-d16
 967              	HAL_SYSCFG_VREFBUF_VoltageScalingConfig:
 968              	.LFB158:
 637:Drivers/STM32L4xx_HAL_Driver/Src/stm32l4xx_hal.c **** 
 638:Drivers/STM32L4xx_HAL_Driver/Src/stm32l4xx_hal.c **** #if defined(VREFBUF)
 639:Drivers/STM32L4xx_HAL_Driver/Src/stm32l4xx_hal.c **** /**
 640:Drivers/STM32L4xx_HAL_Driver/Src/stm32l4xx_hal.c ****   * @brief Configure the internal voltage reference buffer voltage scale.
 641:Drivers/STM32L4xx_HAL_Driver/Src/stm32l4xx_hal.c ****   * @param VoltageScaling  specifies the output voltage to achieve
 642:Drivers/STM32L4xx_HAL_Driver/Src/stm32l4xx_hal.c ****   *          This parameter can be one of the following values:
 643:Drivers/STM32L4xx_HAL_Driver/Src/stm32l4xx_hal.c ****   *            @arg SYSCFG_VREFBUF_VOLTAGE_SCALE0: VREF_OUT1 around 2.048 V.
 644:Drivers/STM32L4xx_HAL_Driver/Src/stm32l4xx_hal.c ****   *                                                This requires VDDA equal to or higher than 2.4 V
 645:Drivers/STM32L4xx_HAL_Driver/Src/stm32l4xx_hal.c ****   *            @arg SYSCFG_VREFBUF_VOLTAGE_SCALE1: VREF_OUT2 around 2.5 V.
 646:Drivers/STM32L4xx_HAL_Driver/Src/stm32l4xx_hal.c ****   *                                                This requires VDDA equal to or higher than 2.8 V
 647:Drivers/STM32L4xx_HAL_Driver/Src/stm32l4xx_hal.c ****   * @retval None
 648:Drivers/STM32L4xx_HAL_Driver/Src/stm32l4xx_hal.c ****   */
 649:Drivers/STM32L4xx_HAL_Driver/Src/stm32l4xx_hal.c **** void HAL_SYSCFG_VREFBUF_VoltageScalingConfig(uint32_t VoltageScaling)
 650:Drivers/STM32L4xx_HAL_Driver/Src/stm32l4xx_hal.c **** {
 969              		.loc 1 650 0
 970              		.cfi_startproc
 971              		@ args = 0, pretend = 0, frame = 0
 972              		@ frame_needed = 0, uses_anonymous_args = 0
 973              		@ link register save eliminated.
ARM GAS  /var/folders/k_/d4dbklhx7q1fs9lh20k9kt840000gn/T//ccmJo6fc.s 			page 29


 974              	.LVL28:
 651:Drivers/STM32L4xx_HAL_Driver/Src/stm32l4xx_hal.c ****   /* Check the parameters */
 652:Drivers/STM32L4xx_HAL_Driver/Src/stm32l4xx_hal.c ****   assert_param(IS_SYSCFG_VREFBUF_VOLTAGE_SCALE(VoltageScaling));
 653:Drivers/STM32L4xx_HAL_Driver/Src/stm32l4xx_hal.c **** 
 654:Drivers/STM32L4xx_HAL_Driver/Src/stm32l4xx_hal.c ****   MODIFY_REG(VREFBUF->CSR, VREFBUF_CSR_VRS, VoltageScaling);
 975              		.loc 1 654 0
 976 0000 034A     		ldr	r2, .L106
 977 0002 1368     		ldr	r3, [r2]
 978 0004 23F00403 		bic	r3, r3, #4
 979 0008 1843     		orrs	r0, r0, r3
 980              	.LVL29:
 981 000a 1060     		str	r0, [r2]
 655:Drivers/STM32L4xx_HAL_Driver/Src/stm32l4xx_hal.c **** }
 982              		.loc 1 655 0
 983 000c 7047     		bx	lr
 984              	.L107:
 985 000e 00BF     		.align	2
 986              	.L106:
 987 0010 30000140 		.word	1073807408
 988              		.cfi_endproc
 989              	.LFE158:
 991              		.section	.text.HAL_SYSCFG_VREFBUF_HighImpedanceConfig,"ax",%progbits
 992              		.align	1
 993              		.global	HAL_SYSCFG_VREFBUF_HighImpedanceConfig
 994              		.syntax unified
 995              		.thumb
 996              		.thumb_func
 997              		.fpu fpv4-sp-d16
 999              	HAL_SYSCFG_VREFBUF_HighImpedanceConfig:
 1000              	.LFB159:
 656:Drivers/STM32L4xx_HAL_Driver/Src/stm32l4xx_hal.c **** 
 657:Drivers/STM32L4xx_HAL_Driver/Src/stm32l4xx_hal.c **** /**
 658:Drivers/STM32L4xx_HAL_Driver/Src/stm32l4xx_hal.c ****   * @brief Configure the internal voltage reference buffer high impedance mode.
 659:Drivers/STM32L4xx_HAL_Driver/Src/stm32l4xx_hal.c ****   * @param Mode  specifies the high impedance mode
 660:Drivers/STM32L4xx_HAL_Driver/Src/stm32l4xx_hal.c ****   *          This parameter can be one of the following values:
 661:Drivers/STM32L4xx_HAL_Driver/Src/stm32l4xx_hal.c ****   *            @arg SYSCFG_VREFBUF_HIGH_IMPEDANCE_DISABLE: VREF+ pin is internally connect to VREFI
 662:Drivers/STM32L4xx_HAL_Driver/Src/stm32l4xx_hal.c ****   *            @arg SYSCFG_VREFBUF_HIGH_IMPEDANCE_ENABLE: VREF+ pin is high impedance.
 663:Drivers/STM32L4xx_HAL_Driver/Src/stm32l4xx_hal.c ****   * @retval None
 664:Drivers/STM32L4xx_HAL_Driver/Src/stm32l4xx_hal.c ****   */
 665:Drivers/STM32L4xx_HAL_Driver/Src/stm32l4xx_hal.c **** void HAL_SYSCFG_VREFBUF_HighImpedanceConfig(uint32_t Mode)
 666:Drivers/STM32L4xx_HAL_Driver/Src/stm32l4xx_hal.c **** {
 1001              		.loc 1 666 0
 1002              		.cfi_startproc
 1003              		@ args = 0, pretend = 0, frame = 0
 1004              		@ frame_needed = 0, uses_anonymous_args = 0
 1005              		@ link register save eliminated.
 1006              	.LVL30:
 667:Drivers/STM32L4xx_HAL_Driver/Src/stm32l4xx_hal.c ****   /* Check the parameters */
 668:Drivers/STM32L4xx_HAL_Driver/Src/stm32l4xx_hal.c ****   assert_param(IS_SYSCFG_VREFBUF_HIGH_IMPEDANCE(Mode));
 669:Drivers/STM32L4xx_HAL_Driver/Src/stm32l4xx_hal.c **** 
 670:Drivers/STM32L4xx_HAL_Driver/Src/stm32l4xx_hal.c ****   MODIFY_REG(VREFBUF->CSR, VREFBUF_CSR_HIZ, Mode);
 1007              		.loc 1 670 0
 1008 0000 034A     		ldr	r2, .L109
 1009 0002 1368     		ldr	r3, [r2]
 1010 0004 23F00203 		bic	r3, r3, #2
 1011 0008 1843     		orrs	r0, r0, r3
 1012              	.LVL31:
ARM GAS  /var/folders/k_/d4dbklhx7q1fs9lh20k9kt840000gn/T//ccmJo6fc.s 			page 30


 1013 000a 1060     		str	r0, [r2]
 671:Drivers/STM32L4xx_HAL_Driver/Src/stm32l4xx_hal.c **** }
 1014              		.loc 1 671 0
 1015 000c 7047     		bx	lr
 1016              	.L110:
 1017 000e 00BF     		.align	2
 1018              	.L109:
 1019 0010 30000140 		.word	1073807408
 1020              		.cfi_endproc
 1021              	.LFE159:
 1023              		.section	.text.HAL_SYSCFG_VREFBUF_TrimmingConfig,"ax",%progbits
 1024              		.align	1
 1025              		.global	HAL_SYSCFG_VREFBUF_TrimmingConfig
 1026              		.syntax unified
 1027              		.thumb
 1028              		.thumb_func
 1029              		.fpu fpv4-sp-d16
 1031              	HAL_SYSCFG_VREFBUF_TrimmingConfig:
 1032              	.LFB160:
 672:Drivers/STM32L4xx_HAL_Driver/Src/stm32l4xx_hal.c **** 
 673:Drivers/STM32L4xx_HAL_Driver/Src/stm32l4xx_hal.c **** /**
 674:Drivers/STM32L4xx_HAL_Driver/Src/stm32l4xx_hal.c ****   * @brief  Tune the Internal Voltage Reference buffer (VREFBUF).
 675:Drivers/STM32L4xx_HAL_Driver/Src/stm32l4xx_hal.c ****   * @retval None
 676:Drivers/STM32L4xx_HAL_Driver/Src/stm32l4xx_hal.c ****   */
 677:Drivers/STM32L4xx_HAL_Driver/Src/stm32l4xx_hal.c **** void HAL_SYSCFG_VREFBUF_TrimmingConfig(uint32_t TrimmingValue)
 678:Drivers/STM32L4xx_HAL_Driver/Src/stm32l4xx_hal.c **** {
 1033              		.loc 1 678 0
 1034              		.cfi_startproc
 1035              		@ args = 0, pretend = 0, frame = 0
 1036              		@ frame_needed = 0, uses_anonymous_args = 0
 1037              		@ link register save eliminated.
 1038              	.LVL32:
 679:Drivers/STM32L4xx_HAL_Driver/Src/stm32l4xx_hal.c ****   /* Check the parameters */
 680:Drivers/STM32L4xx_HAL_Driver/Src/stm32l4xx_hal.c ****   assert_param(IS_SYSCFG_VREFBUF_TRIMMING(TrimmingValue));
 681:Drivers/STM32L4xx_HAL_Driver/Src/stm32l4xx_hal.c **** 
 682:Drivers/STM32L4xx_HAL_Driver/Src/stm32l4xx_hal.c ****   MODIFY_REG(VREFBUF->CCR, VREFBUF_CCR_TRIM, TrimmingValue);
 1039              		.loc 1 682 0
 1040 0000 034A     		ldr	r2, .L112
 1041 0002 5368     		ldr	r3, [r2, #4]
 1042 0004 23F03F03 		bic	r3, r3, #63
 1043 0008 1843     		orrs	r0, r0, r3
 1044              	.LVL33:
 1045 000a 5060     		str	r0, [r2, #4]
 683:Drivers/STM32L4xx_HAL_Driver/Src/stm32l4xx_hal.c **** }
 1046              		.loc 1 683 0
 1047 000c 7047     		bx	lr
 1048              	.L113:
 1049 000e 00BF     		.align	2
 1050              	.L112:
 1051 0010 30000140 		.word	1073807408
 1052              		.cfi_endproc
 1053              	.LFE160:
 1055              		.section	.text.HAL_SYSCFG_EnableVREFBUF,"ax",%progbits
 1056              		.align	1
 1057              		.global	HAL_SYSCFG_EnableVREFBUF
 1058              		.syntax unified
 1059              		.thumb
ARM GAS  /var/folders/k_/d4dbklhx7q1fs9lh20k9kt840000gn/T//ccmJo6fc.s 			page 31


 1060              		.thumb_func
 1061              		.fpu fpv4-sp-d16
 1063              	HAL_SYSCFG_EnableVREFBUF:
 1064              	.LFB161:
 684:Drivers/STM32L4xx_HAL_Driver/Src/stm32l4xx_hal.c **** 
 685:Drivers/STM32L4xx_HAL_Driver/Src/stm32l4xx_hal.c **** /**
 686:Drivers/STM32L4xx_HAL_Driver/Src/stm32l4xx_hal.c ****   * @brief  Enable the Internal Voltage Reference buffer (VREFBUF).
 687:Drivers/STM32L4xx_HAL_Driver/Src/stm32l4xx_hal.c ****   * @retval HAL_OK/HAL_TIMEOUT
 688:Drivers/STM32L4xx_HAL_Driver/Src/stm32l4xx_hal.c ****   */
 689:Drivers/STM32L4xx_HAL_Driver/Src/stm32l4xx_hal.c **** HAL_StatusTypeDef HAL_SYSCFG_EnableVREFBUF(void)
 690:Drivers/STM32L4xx_HAL_Driver/Src/stm32l4xx_hal.c **** {
 1065              		.loc 1 690 0
 1066              		.cfi_startproc
 1067              		@ args = 0, pretend = 0, frame = 0
 1068              		@ frame_needed = 0, uses_anonymous_args = 0
 1069 0000 10B5     		push	{r4, lr}
 1070              	.LCFI6:
 1071              		.cfi_def_cfa_offset 8
 1072              		.cfi_offset 4, -8
 1073              		.cfi_offset 14, -4
 691:Drivers/STM32L4xx_HAL_Driver/Src/stm32l4xx_hal.c ****   uint32_t  tickstart;
 692:Drivers/STM32L4xx_HAL_Driver/Src/stm32l4xx_hal.c **** 
 693:Drivers/STM32L4xx_HAL_Driver/Src/stm32l4xx_hal.c ****   SET_BIT(VREFBUF->CSR, VREFBUF_CSR_ENVR);
 1074              		.loc 1 693 0
 1075 0002 0B4A     		ldr	r2, .L121
 1076 0004 1368     		ldr	r3, [r2]
 1077 0006 43F00103 		orr	r3, r3, #1
 1078 000a 1360     		str	r3, [r2]
 694:Drivers/STM32L4xx_HAL_Driver/Src/stm32l4xx_hal.c **** 
 695:Drivers/STM32L4xx_HAL_Driver/Src/stm32l4xx_hal.c ****   /* Get Start Tick*/
 696:Drivers/STM32L4xx_HAL_Driver/Src/stm32l4xx_hal.c ****   tickstart = HAL_GetTick();
 1079              		.loc 1 696 0
 1080 000c FFF7FEFF 		bl	HAL_GetTick
 1081              	.LVL34:
 1082 0010 0446     		mov	r4, r0
 1083              	.LVL35:
 1084              	.L115:
 697:Drivers/STM32L4xx_HAL_Driver/Src/stm32l4xx_hal.c **** 
 698:Drivers/STM32L4xx_HAL_Driver/Src/stm32l4xx_hal.c ****   /* Wait for VRR bit  */
 699:Drivers/STM32L4xx_HAL_Driver/Src/stm32l4xx_hal.c ****   while(READ_BIT(VREFBUF->CSR, VREFBUF_CSR_VRR) == 0U)
 1085              		.loc 1 699 0
 1086 0012 074B     		ldr	r3, .L121
 1087 0014 1B68     		ldr	r3, [r3]
 1088 0016 13F0080F 		tst	r3, #8
 1089 001a 06D1     		bne	.L120
 700:Drivers/STM32L4xx_HAL_Driver/Src/stm32l4xx_hal.c ****   {
 701:Drivers/STM32L4xx_HAL_Driver/Src/stm32l4xx_hal.c ****     if((HAL_GetTick() - tickstart) > VREFBUF_TIMEOUT_VALUE)
 1090              		.loc 1 701 0
 1091 001c FFF7FEFF 		bl	HAL_GetTick
 1092              	.LVL36:
 1093 0020 001B     		subs	r0, r0, r4
 1094 0022 0A28     		cmp	r0, #10
 1095 0024 F5D9     		bls	.L115
 702:Drivers/STM32L4xx_HAL_Driver/Src/stm32l4xx_hal.c ****     {
 703:Drivers/STM32L4xx_HAL_Driver/Src/stm32l4xx_hal.c ****       return HAL_TIMEOUT;
 1096              		.loc 1 703 0
 1097 0026 0320     		movs	r0, #3
ARM GAS  /var/folders/k_/d4dbklhx7q1fs9lh20k9kt840000gn/T//ccmJo6fc.s 			page 32


 1098 0028 00E0     		b	.L116
 1099              	.L120:
 704:Drivers/STM32L4xx_HAL_Driver/Src/stm32l4xx_hal.c ****     }
 705:Drivers/STM32L4xx_HAL_Driver/Src/stm32l4xx_hal.c ****   }
 706:Drivers/STM32L4xx_HAL_Driver/Src/stm32l4xx_hal.c **** 
 707:Drivers/STM32L4xx_HAL_Driver/Src/stm32l4xx_hal.c ****   return HAL_OK;
 1100              		.loc 1 707 0
 1101 002a 0020     		movs	r0, #0
 1102              	.L116:
 708:Drivers/STM32L4xx_HAL_Driver/Src/stm32l4xx_hal.c **** }
 1103              		.loc 1 708 0
 1104 002c 10BD     		pop	{r4, pc}
 1105              	.LVL37:
 1106              	.L122:
 1107 002e 00BF     		.align	2
 1108              	.L121:
 1109 0030 30000140 		.word	1073807408
 1110              		.cfi_endproc
 1111              	.LFE161:
 1113              		.section	.text.HAL_SYSCFG_DisableVREFBUF,"ax",%progbits
 1114              		.align	1
 1115              		.global	HAL_SYSCFG_DisableVREFBUF
 1116              		.syntax unified
 1117              		.thumb
 1118              		.thumb_func
 1119              		.fpu fpv4-sp-d16
 1121              	HAL_SYSCFG_DisableVREFBUF:
 1122              	.LFB162:
 709:Drivers/STM32L4xx_HAL_Driver/Src/stm32l4xx_hal.c **** 
 710:Drivers/STM32L4xx_HAL_Driver/Src/stm32l4xx_hal.c **** /**
 711:Drivers/STM32L4xx_HAL_Driver/Src/stm32l4xx_hal.c ****   * @brief  Disable the Internal Voltage Reference buffer (VREFBUF).
 712:Drivers/STM32L4xx_HAL_Driver/Src/stm32l4xx_hal.c ****   *
 713:Drivers/STM32L4xx_HAL_Driver/Src/stm32l4xx_hal.c ****   * @retval None
 714:Drivers/STM32L4xx_HAL_Driver/Src/stm32l4xx_hal.c ****   */
 715:Drivers/STM32L4xx_HAL_Driver/Src/stm32l4xx_hal.c **** void HAL_SYSCFG_DisableVREFBUF(void)
 716:Drivers/STM32L4xx_HAL_Driver/Src/stm32l4xx_hal.c **** {
 1123              		.loc 1 716 0
 1124              		.cfi_startproc
 1125              		@ args = 0, pretend = 0, frame = 0
 1126              		@ frame_needed = 0, uses_anonymous_args = 0
 1127              		@ link register save eliminated.
 717:Drivers/STM32L4xx_HAL_Driver/Src/stm32l4xx_hal.c ****   CLEAR_BIT(VREFBUF->CSR, VREFBUF_CSR_ENVR);
 1128              		.loc 1 717 0
 1129 0000 024A     		ldr	r2, .L124
 1130 0002 1368     		ldr	r3, [r2]
 1131 0004 23F00103 		bic	r3, r3, #1
 1132 0008 1360     		str	r3, [r2]
 718:Drivers/STM32L4xx_HAL_Driver/Src/stm32l4xx_hal.c **** }
 1133              		.loc 1 718 0
 1134 000a 7047     		bx	lr
 1135              	.L125:
 1136              		.align	2
 1137              	.L124:
 1138 000c 30000140 		.word	1073807408
 1139              		.cfi_endproc
 1140              	.LFE162:
 1142              		.section	.text.HAL_SYSCFG_EnableIOAnalogSwitchBooster,"ax",%progbits
ARM GAS  /var/folders/k_/d4dbklhx7q1fs9lh20k9kt840000gn/T//ccmJo6fc.s 			page 33


 1143              		.align	1
 1144              		.global	HAL_SYSCFG_EnableIOAnalogSwitchBooster
 1145              		.syntax unified
 1146              		.thumb
 1147              		.thumb_func
 1148              		.fpu fpv4-sp-d16
 1150              	HAL_SYSCFG_EnableIOAnalogSwitchBooster:
 1151              	.LFB163:
 719:Drivers/STM32L4xx_HAL_Driver/Src/stm32l4xx_hal.c **** #endif /* VREFBUF */
 720:Drivers/STM32L4xx_HAL_Driver/Src/stm32l4xx_hal.c **** 
 721:Drivers/STM32L4xx_HAL_Driver/Src/stm32l4xx_hal.c **** /**
 722:Drivers/STM32L4xx_HAL_Driver/Src/stm32l4xx_hal.c ****   * @brief  Enable the I/O analog switch voltage booster
 723:Drivers/STM32L4xx_HAL_Driver/Src/stm32l4xx_hal.c ****   *
 724:Drivers/STM32L4xx_HAL_Driver/Src/stm32l4xx_hal.c ****   * @retval None
 725:Drivers/STM32L4xx_HAL_Driver/Src/stm32l4xx_hal.c ****   */
 726:Drivers/STM32L4xx_HAL_Driver/Src/stm32l4xx_hal.c **** void HAL_SYSCFG_EnableIOAnalogSwitchBooster(void)
 727:Drivers/STM32L4xx_HAL_Driver/Src/stm32l4xx_hal.c **** {
 1152              		.loc 1 727 0
 1153              		.cfi_startproc
 1154              		@ args = 0, pretend = 0, frame = 0
 1155              		@ frame_needed = 0, uses_anonymous_args = 0
 1156              		@ link register save eliminated.
 728:Drivers/STM32L4xx_HAL_Driver/Src/stm32l4xx_hal.c ****   SET_BIT(SYSCFG->CFGR1, SYSCFG_CFGR1_BOOSTEN);
 1157              		.loc 1 728 0
 1158 0000 024A     		ldr	r2, .L127
 1159 0002 5368     		ldr	r3, [r2, #4]
 1160 0004 43F48073 		orr	r3, r3, #256
 1161 0008 5360     		str	r3, [r2, #4]
 729:Drivers/STM32L4xx_HAL_Driver/Src/stm32l4xx_hal.c **** }
 1162              		.loc 1 729 0
 1163 000a 7047     		bx	lr
 1164              	.L128:
 1165              		.align	2
 1166              	.L127:
 1167 000c 00000140 		.word	1073807360
 1168              		.cfi_endproc
 1169              	.LFE163:
 1171              		.section	.text.HAL_SYSCFG_DisableIOAnalogSwitchBooster,"ax",%progbits
 1172              		.align	1
 1173              		.global	HAL_SYSCFG_DisableIOAnalogSwitchBooster
 1174              		.syntax unified
 1175              		.thumb
 1176              		.thumb_func
 1177              		.fpu fpv4-sp-d16
 1179              	HAL_SYSCFG_DisableIOAnalogSwitchBooster:
 1180              	.LFB164:
 730:Drivers/STM32L4xx_HAL_Driver/Src/stm32l4xx_hal.c **** 
 731:Drivers/STM32L4xx_HAL_Driver/Src/stm32l4xx_hal.c **** /**
 732:Drivers/STM32L4xx_HAL_Driver/Src/stm32l4xx_hal.c ****   * @brief  Disable the I/O analog switch voltage booster
 733:Drivers/STM32L4xx_HAL_Driver/Src/stm32l4xx_hal.c ****   *
 734:Drivers/STM32L4xx_HAL_Driver/Src/stm32l4xx_hal.c ****   * @retval None
 735:Drivers/STM32L4xx_HAL_Driver/Src/stm32l4xx_hal.c ****   */
 736:Drivers/STM32L4xx_HAL_Driver/Src/stm32l4xx_hal.c **** void HAL_SYSCFG_DisableIOAnalogSwitchBooster(void)
 737:Drivers/STM32L4xx_HAL_Driver/Src/stm32l4xx_hal.c **** {
 1181              		.loc 1 737 0
 1182              		.cfi_startproc
 1183              		@ args = 0, pretend = 0, frame = 0
ARM GAS  /var/folders/k_/d4dbklhx7q1fs9lh20k9kt840000gn/T//ccmJo6fc.s 			page 34


 1184              		@ frame_needed = 0, uses_anonymous_args = 0
 1185              		@ link register save eliminated.
 738:Drivers/STM32L4xx_HAL_Driver/Src/stm32l4xx_hal.c ****   CLEAR_BIT(SYSCFG->CFGR1, SYSCFG_CFGR1_BOOSTEN);
 1186              		.loc 1 738 0
 1187 0000 024A     		ldr	r2, .L130
 1188 0002 5368     		ldr	r3, [r2, #4]
 1189 0004 23F48073 		bic	r3, r3, #256
 1190 0008 5360     		str	r3, [r2, #4]
 739:Drivers/STM32L4xx_HAL_Driver/Src/stm32l4xx_hal.c **** }
 1191              		.loc 1 739 0
 1192 000a 7047     		bx	lr
 1193              	.L131:
 1194              		.align	2
 1195              	.L130:
 1196 000c 00000140 		.word	1073807360
 1197              		.cfi_endproc
 1198              	.LFE164:
 1200              		.global	uwTickFreq
 1201              		.global	uwTickPrio
 1202              		.comm	uwTick,4,4
 1203              		.section	.data.uwTickFreq,"aw",%progbits
 1204              		.align	2
 1205              		.set	.LANCHOR0,. + 0
 1208              	uwTickFreq:
 1209 0000 01000000 		.word	1
 1210              		.section	.data.uwTickPrio,"aw",%progbits
 1211              		.align	2
 1212              		.set	.LANCHOR1,. + 0
 1215              	uwTickPrio:
 1216 0000 10000000 		.word	16
 1217              		.text
 1218              	.Letext0:
 1219              		.file 2 "/usr/local/Cellar/gcc-arm-none-eabi/20180627/arm-none-eabi/include/machine/_default_types
 1220              		.file 3 "/usr/local/Cellar/gcc-arm-none-eabi/20180627/arm-none-eabi/include/sys/_stdint.h"
 1221              		.file 4 "Drivers/CMSIS/Include/core_cm4.h"
 1222              		.file 5 "Drivers/CMSIS/Device/ST/STM32L4xx/Include/system_stm32l4xx.h"
 1223              		.file 6 "Drivers/CMSIS/Device/ST/STM32L4xx/Include/stm32l476xx.h"
 1224              		.file 7 "Drivers/STM32L4xx_HAL_Driver/Inc/stm32l4xx_hal_def.h"
 1225              		.file 8 "Drivers/STM32L4xx_HAL_Driver/Inc/stm32l4xx_hal_flash.h"
 1226              		.file 9 "Drivers/STM32L4xx_HAL_Driver/Inc/stm32l4xx_hal.h"
 1227              		.file 10 "Drivers/STM32L4xx_HAL_Driver/Inc/stm32l4xx_hal_cortex.h"
ARM GAS  /var/folders/k_/d4dbklhx7q1fs9lh20k9kt840000gn/T//ccmJo6fc.s 			page 35

