ARM GAS  /var/folders/k_/d4dbklhx7q1fs9lh20k9kt840000gn/T//cciJk3fn.s 			page 1


   1              		.cpu cortex-m4
   2              		.eabi_attribute 27, 1
   3              		.eabi_attribute 28, 1
   4              		.eabi_attribute 20, 1
   5              		.eabi_attribute 21, 1
   6              		.eabi_attribute 23, 3
   7              		.eabi_attribute 24, 1
   8              		.eabi_attribute 25, 1
   9              		.eabi_attribute 26, 1
  10              		.eabi_attribute 30, 1
  11              		.eabi_attribute 34, 1
  12              		.eabi_attribute 18, 4
  13              		.file	"usbd_conf.c"
  14              		.text
  15              	.Ltext0:
  16              		.cfi_sections	.debug_frame
  17              		.section	.text.SystemClockConfig_Resume,"ax",%progbits
  18              		.align	1
  19              		.syntax unified
  20              		.thumb
  21              		.thumb_func
  22              		.fpu fpv4-sp-d16
  24              	SystemClockConfig_Resume:
  25              	.LFB164:
  26              		.file 1 "Src/usbd_conf.c"
   1:Src/usbd_conf.c **** /* USER CODE BEGIN Header */
   2:Src/usbd_conf.c **** /**
   3:Src/usbd_conf.c ****   ******************************************************************************
   4:Src/usbd_conf.c ****   * @file           : usbd_conf.c
   5:Src/usbd_conf.c ****   * @version        : v2.0_Cube
   6:Src/usbd_conf.c ****   * @brief          : This file implements the board support package for the USB device library
   7:Src/usbd_conf.c ****   ******************************************************************************
   8:Src/usbd_conf.c ****   * @attention
   9:Src/usbd_conf.c ****   *
  10:Src/usbd_conf.c ****   * <h2><center>&copy; Copyright (c) 2020 STMicroelectronics.
  11:Src/usbd_conf.c ****   * All rights reserved.</center></h2>
  12:Src/usbd_conf.c ****   *
  13:Src/usbd_conf.c ****   * This software component is licensed by ST under Ultimate Liberty license
  14:Src/usbd_conf.c ****   * SLA0044, the "License"; You may not use this file except in compliance with
  15:Src/usbd_conf.c ****   * the License. You may obtain a copy of the License at:
  16:Src/usbd_conf.c ****   *                             www.st.com/SLA0044
  17:Src/usbd_conf.c ****   *
  18:Src/usbd_conf.c ****   ******************************************************************************
  19:Src/usbd_conf.c ****   */
  20:Src/usbd_conf.c **** /* USER CODE END Header */
  21:Src/usbd_conf.c **** 
  22:Src/usbd_conf.c **** /* Includes ------------------------------------------------------------------*/
  23:Src/usbd_conf.c **** #include "stm32l4xx.h"
  24:Src/usbd_conf.c **** #include "stm32l4xx_hal.h"
  25:Src/usbd_conf.c **** #include "usbd_def.h"
  26:Src/usbd_conf.c **** #include "usbd_core.h"
  27:Src/usbd_conf.c **** #include "usbd_cdc.h"
  28:Src/usbd_conf.c **** 
  29:Src/usbd_conf.c **** /* USER CODE BEGIN Includes */
  30:Src/usbd_conf.c **** 
  31:Src/usbd_conf.c **** /* USER CODE END Includes */
  32:Src/usbd_conf.c **** 
ARM GAS  /var/folders/k_/d4dbklhx7q1fs9lh20k9kt840000gn/T//cciJk3fn.s 			page 2


  33:Src/usbd_conf.c **** /* Private typedef -----------------------------------------------------------*/
  34:Src/usbd_conf.c **** /* Private define ------------------------------------------------------------*/
  35:Src/usbd_conf.c **** /* Private macro -------------------------------------------------------------*/
  36:Src/usbd_conf.c **** 
  37:Src/usbd_conf.c **** /* USER CODE BEGIN PV */
  38:Src/usbd_conf.c **** /* Private variables ---------------------------------------------------------*/
  39:Src/usbd_conf.c **** 
  40:Src/usbd_conf.c **** /* USER CODE END PV */
  41:Src/usbd_conf.c **** 
  42:Src/usbd_conf.c **** PCD_HandleTypeDef hpcd_USB_OTG_FS;
  43:Src/usbd_conf.c **** void Error_Handler(void);
  44:Src/usbd_conf.c **** 
  45:Src/usbd_conf.c **** /* USER CODE BEGIN 0 */
  46:Src/usbd_conf.c **** 
  47:Src/usbd_conf.c **** /* USER CODE END 0 */
  48:Src/usbd_conf.c **** 
  49:Src/usbd_conf.c **** /* Exported function prototypes ----------------------------------------------*/
  50:Src/usbd_conf.c **** extern USBD_StatusTypeDef USBD_LL_BatteryCharging(USBD_HandleTypeDef *pdev);
  51:Src/usbd_conf.c **** 
  52:Src/usbd_conf.c **** /* USER CODE BEGIN PFP */
  53:Src/usbd_conf.c **** /* Private function prototypes -----------------------------------------------*/
  54:Src/usbd_conf.c **** 
  55:Src/usbd_conf.c **** /* USER CODE END PFP */
  56:Src/usbd_conf.c **** 
  57:Src/usbd_conf.c **** /* Private functions ---------------------------------------------------------*/
  58:Src/usbd_conf.c **** 
  59:Src/usbd_conf.c **** /* USER CODE BEGIN 1 */
  60:Src/usbd_conf.c **** static void SystemClockConfig_Resume(void);
  61:Src/usbd_conf.c **** 
  62:Src/usbd_conf.c **** /* USER CODE END 1 */
  63:Src/usbd_conf.c **** extern void SystemClock_Config(void);
  64:Src/usbd_conf.c **** 
  65:Src/usbd_conf.c **** /*******************************************************************************
  66:Src/usbd_conf.c ****                        LL Driver Callbacks (PCD -> USB Device Library)
  67:Src/usbd_conf.c **** *******************************************************************************/
  68:Src/usbd_conf.c **** /* MSP Init */
  69:Src/usbd_conf.c **** 
  70:Src/usbd_conf.c **** void HAL_PCD_MspInit(PCD_HandleTypeDef* pcdHandle)
  71:Src/usbd_conf.c **** {
  72:Src/usbd_conf.c ****   GPIO_InitTypeDef GPIO_InitStruct = {0};
  73:Src/usbd_conf.c ****   if(pcdHandle->Instance==USB_OTG_FS)
  74:Src/usbd_conf.c ****   {
  75:Src/usbd_conf.c ****   /* USER CODE BEGIN USB_OTG_FS_MspInit 0 */
  76:Src/usbd_conf.c **** 
  77:Src/usbd_conf.c ****   /* USER CODE END USB_OTG_FS_MspInit 0 */
  78:Src/usbd_conf.c ****   
  79:Src/usbd_conf.c ****     __HAL_RCC_GPIOA_CLK_ENABLE();
  80:Src/usbd_conf.c ****     /**USB_OTG_FS GPIO Configuration    
  81:Src/usbd_conf.c ****     PA11     ------> USB_OTG_FS_DM
  82:Src/usbd_conf.c ****     PA12     ------> USB_OTG_FS_DP 
  83:Src/usbd_conf.c ****     */
  84:Src/usbd_conf.c ****     GPIO_InitStruct.Pin = GPIO_PIN_11|GPIO_PIN_12;
  85:Src/usbd_conf.c ****     GPIO_InitStruct.Mode = GPIO_MODE_AF_PP;
  86:Src/usbd_conf.c ****     GPIO_InitStruct.Pull = GPIO_NOPULL;
  87:Src/usbd_conf.c ****     GPIO_InitStruct.Speed = GPIO_SPEED_FREQ_VERY_HIGH;
  88:Src/usbd_conf.c ****     GPIO_InitStruct.Alternate = GPIO_AF10_OTG_FS;
  89:Src/usbd_conf.c ****     HAL_GPIO_Init(GPIOA, &GPIO_InitStruct);
ARM GAS  /var/folders/k_/d4dbklhx7q1fs9lh20k9kt840000gn/T//cciJk3fn.s 			page 3


  90:Src/usbd_conf.c **** 
  91:Src/usbd_conf.c ****     /* Peripheral clock enable */
  92:Src/usbd_conf.c ****     __HAL_RCC_USB_OTG_FS_CLK_ENABLE();
  93:Src/usbd_conf.c **** 
  94:Src/usbd_conf.c ****     /* Enable VDDUSB */
  95:Src/usbd_conf.c ****     if(__HAL_RCC_PWR_IS_CLK_DISABLED())
  96:Src/usbd_conf.c ****     {
  97:Src/usbd_conf.c ****       __HAL_RCC_PWR_CLK_ENABLE();
  98:Src/usbd_conf.c ****       HAL_PWREx_EnableVddUSB();
  99:Src/usbd_conf.c ****       __HAL_RCC_PWR_CLK_DISABLE();
 100:Src/usbd_conf.c ****     }
 101:Src/usbd_conf.c ****     else
 102:Src/usbd_conf.c ****     {
 103:Src/usbd_conf.c ****       HAL_PWREx_EnableVddUSB();
 104:Src/usbd_conf.c ****     }
 105:Src/usbd_conf.c **** 
 106:Src/usbd_conf.c ****     /* Peripheral interrupt init */
 107:Src/usbd_conf.c ****     HAL_NVIC_SetPriority(OTG_FS_IRQn, 0, 0);
 108:Src/usbd_conf.c ****     HAL_NVIC_EnableIRQ(OTG_FS_IRQn);
 109:Src/usbd_conf.c ****   /* USER CODE BEGIN USB_OTG_FS_MspInit 1 */
 110:Src/usbd_conf.c **** 
 111:Src/usbd_conf.c ****   /* USER CODE END USB_OTG_FS_MspInit 1 */
 112:Src/usbd_conf.c ****   }
 113:Src/usbd_conf.c **** }
 114:Src/usbd_conf.c **** 
 115:Src/usbd_conf.c **** void HAL_PCD_MspDeInit(PCD_HandleTypeDef* pcdHandle)
 116:Src/usbd_conf.c **** {
 117:Src/usbd_conf.c ****   if(pcdHandle->Instance==USB_OTG_FS)
 118:Src/usbd_conf.c ****   {
 119:Src/usbd_conf.c ****   /* USER CODE BEGIN USB_OTG_FS_MspDeInit 0 */
 120:Src/usbd_conf.c **** 
 121:Src/usbd_conf.c ****   /* USER CODE END USB_OTG_FS_MspDeInit 0 */
 122:Src/usbd_conf.c ****     /* Peripheral clock disable */
 123:Src/usbd_conf.c ****     __HAL_RCC_USB_OTG_FS_CLK_DISABLE();
 124:Src/usbd_conf.c ****   
 125:Src/usbd_conf.c ****     /**USB_OTG_FS GPIO Configuration    
 126:Src/usbd_conf.c ****     PA11     ------> USB_OTG_FS_DM
 127:Src/usbd_conf.c ****     PA12     ------> USB_OTG_FS_DP 
 128:Src/usbd_conf.c ****     */
 129:Src/usbd_conf.c ****     HAL_GPIO_DeInit(GPIOA, GPIO_PIN_11|GPIO_PIN_12);
 130:Src/usbd_conf.c **** 
 131:Src/usbd_conf.c ****     /* Disable VDDUSB */
 132:Src/usbd_conf.c ****     if(__HAL_RCC_PWR_IS_CLK_DISABLED())
 133:Src/usbd_conf.c ****     {
 134:Src/usbd_conf.c ****       __HAL_RCC_PWR_CLK_ENABLE();
 135:Src/usbd_conf.c ****       HAL_PWREx_DisableVddUSB();
 136:Src/usbd_conf.c ****       __HAL_RCC_PWR_CLK_DISABLE();
 137:Src/usbd_conf.c ****     }
 138:Src/usbd_conf.c ****     else
 139:Src/usbd_conf.c ****     {
 140:Src/usbd_conf.c ****       HAL_PWREx_DisableVddUSB();
 141:Src/usbd_conf.c ****     }
 142:Src/usbd_conf.c **** 
 143:Src/usbd_conf.c ****     /* Peripheral interrupt Deinit*/
 144:Src/usbd_conf.c ****     HAL_NVIC_DisableIRQ(OTG_FS_IRQn);
 145:Src/usbd_conf.c **** 
 146:Src/usbd_conf.c ****   /* USER CODE BEGIN USB_OTG_FS_MspDeInit 1 */
ARM GAS  /var/folders/k_/d4dbklhx7q1fs9lh20k9kt840000gn/T//cciJk3fn.s 			page 4


 147:Src/usbd_conf.c **** 
 148:Src/usbd_conf.c ****   /* USER CODE END USB_OTG_FS_MspDeInit 1 */
 149:Src/usbd_conf.c ****   }
 150:Src/usbd_conf.c **** }
 151:Src/usbd_conf.c **** 
 152:Src/usbd_conf.c **** /**
 153:Src/usbd_conf.c ****   * @brief  Setup stage callback
 154:Src/usbd_conf.c ****   * @param  hpcd: PCD handle
 155:Src/usbd_conf.c ****   * @retval None
 156:Src/usbd_conf.c ****   */
 157:Src/usbd_conf.c **** #if (USE_HAL_PCD_REGISTER_CALLBACKS == 1U)
 158:Src/usbd_conf.c **** static void PCD_SetupStageCallback(PCD_HandleTypeDef *hpcd)
 159:Src/usbd_conf.c **** #else
 160:Src/usbd_conf.c **** void HAL_PCD_SetupStageCallback(PCD_HandleTypeDef *hpcd)
 161:Src/usbd_conf.c **** #endif /* USE_HAL_PCD_REGISTER_CALLBACKS */
 162:Src/usbd_conf.c **** {
 163:Src/usbd_conf.c ****   USBD_LL_SetupStage((USBD_HandleTypeDef*)hpcd->pData, (uint8_t *)hpcd->Setup);
 164:Src/usbd_conf.c **** }
 165:Src/usbd_conf.c **** 
 166:Src/usbd_conf.c **** /**
 167:Src/usbd_conf.c ****   * @brief  Data Out stage callback.
 168:Src/usbd_conf.c ****   * @param  hpcd: PCD handle
 169:Src/usbd_conf.c ****   * @param  epnum: Endpoint number
 170:Src/usbd_conf.c ****   * @retval None
 171:Src/usbd_conf.c ****   */
 172:Src/usbd_conf.c **** #if (USE_HAL_PCD_REGISTER_CALLBACKS == 1U)
 173:Src/usbd_conf.c **** static void PCD_DataOutStageCallback(PCD_HandleTypeDef *hpcd, uint8_t epnum)
 174:Src/usbd_conf.c **** #else
 175:Src/usbd_conf.c **** void HAL_PCD_DataOutStageCallback(PCD_HandleTypeDef *hpcd, uint8_t epnum)
 176:Src/usbd_conf.c **** #endif /* USE_HAL_PCD_REGISTER_CALLBACKS */
 177:Src/usbd_conf.c **** {
 178:Src/usbd_conf.c ****   USBD_LL_DataOutStage((USBD_HandleTypeDef*)hpcd->pData, epnum, hpcd->OUT_ep[epnum].xfer_buff);
 179:Src/usbd_conf.c **** }
 180:Src/usbd_conf.c **** 
 181:Src/usbd_conf.c **** /**
 182:Src/usbd_conf.c ****   * @brief  Data In stage callback.
 183:Src/usbd_conf.c ****   * @param  hpcd: PCD handle
 184:Src/usbd_conf.c ****   * @param  epnum: Endpoint number
 185:Src/usbd_conf.c ****   * @retval None
 186:Src/usbd_conf.c ****   */
 187:Src/usbd_conf.c **** #if (USE_HAL_PCD_REGISTER_CALLBACKS == 1U)
 188:Src/usbd_conf.c **** static void PCD_DataInStageCallback(PCD_HandleTypeDef *hpcd, uint8_t epnum)
 189:Src/usbd_conf.c **** #else
 190:Src/usbd_conf.c **** void HAL_PCD_DataInStageCallback(PCD_HandleTypeDef *hpcd, uint8_t epnum)
 191:Src/usbd_conf.c **** #endif /* USE_HAL_PCD_REGISTER_CALLBACKS */
 192:Src/usbd_conf.c **** {
 193:Src/usbd_conf.c ****   USBD_LL_DataInStage((USBD_HandleTypeDef*)hpcd->pData, epnum, hpcd->IN_ep[epnum].xfer_buff);
 194:Src/usbd_conf.c **** }
 195:Src/usbd_conf.c **** 
 196:Src/usbd_conf.c **** /**
 197:Src/usbd_conf.c ****   * @brief  SOF callback.
 198:Src/usbd_conf.c ****   * @param  hpcd: PCD handle
 199:Src/usbd_conf.c ****   * @retval None
 200:Src/usbd_conf.c ****   */
 201:Src/usbd_conf.c **** #if (USE_HAL_PCD_REGISTER_CALLBACKS == 1U)
 202:Src/usbd_conf.c **** static void PCD_SOFCallback(PCD_HandleTypeDef *hpcd)
 203:Src/usbd_conf.c **** #else
ARM GAS  /var/folders/k_/d4dbklhx7q1fs9lh20k9kt840000gn/T//cciJk3fn.s 			page 5


 204:Src/usbd_conf.c **** void HAL_PCD_SOFCallback(PCD_HandleTypeDef *hpcd)
 205:Src/usbd_conf.c **** #endif /* USE_HAL_PCD_REGISTER_CALLBACKS */
 206:Src/usbd_conf.c **** {
 207:Src/usbd_conf.c ****   USBD_LL_SOF((USBD_HandleTypeDef*)hpcd->pData);
 208:Src/usbd_conf.c **** }
 209:Src/usbd_conf.c **** 
 210:Src/usbd_conf.c **** /**
 211:Src/usbd_conf.c ****   * @brief  Reset callback.
 212:Src/usbd_conf.c ****   * @param  hpcd: PCD handle
 213:Src/usbd_conf.c ****   * @retval None
 214:Src/usbd_conf.c ****   */
 215:Src/usbd_conf.c **** #if (USE_HAL_PCD_REGISTER_CALLBACKS == 1U)
 216:Src/usbd_conf.c **** static void PCD_ResetCallback(PCD_HandleTypeDef *hpcd)
 217:Src/usbd_conf.c **** #else
 218:Src/usbd_conf.c **** void HAL_PCD_ResetCallback(PCD_HandleTypeDef *hpcd)
 219:Src/usbd_conf.c **** #endif /* USE_HAL_PCD_REGISTER_CALLBACKS */
 220:Src/usbd_conf.c **** { 
 221:Src/usbd_conf.c ****   USBD_SpeedTypeDef speed = USBD_SPEED_FULL;
 222:Src/usbd_conf.c **** 
 223:Src/usbd_conf.c ****   if ( hpcd->Init.speed != PCD_SPEED_FULL)
 224:Src/usbd_conf.c ****   {
 225:Src/usbd_conf.c ****     Error_Handler();
 226:Src/usbd_conf.c ****   }
 227:Src/usbd_conf.c ****     /* Set Speed. */
 228:Src/usbd_conf.c ****   USBD_LL_SetSpeed((USBD_HandleTypeDef*)hpcd->pData, speed);
 229:Src/usbd_conf.c **** 
 230:Src/usbd_conf.c ****   /* Reset Device. */
 231:Src/usbd_conf.c ****   USBD_LL_Reset((USBD_HandleTypeDef*)hpcd->pData);
 232:Src/usbd_conf.c **** }
 233:Src/usbd_conf.c **** 
 234:Src/usbd_conf.c **** /**
 235:Src/usbd_conf.c ****   * @brief  Suspend callback.
 236:Src/usbd_conf.c ****   * When Low power mode is enabled the debug cannot be used (IAR, Keil doesn't support it)
 237:Src/usbd_conf.c ****   * @param  hpcd: PCD handle
 238:Src/usbd_conf.c ****   * @retval None
 239:Src/usbd_conf.c ****   */
 240:Src/usbd_conf.c **** #if (USE_HAL_PCD_REGISTER_CALLBACKS == 1U)
 241:Src/usbd_conf.c **** static void PCD_SuspendCallback(PCD_HandleTypeDef *hpcd)
 242:Src/usbd_conf.c **** #else
 243:Src/usbd_conf.c **** void HAL_PCD_SuspendCallback(PCD_HandleTypeDef *hpcd)
 244:Src/usbd_conf.c **** #endif /* USE_HAL_PCD_REGISTER_CALLBACKS */
 245:Src/usbd_conf.c **** {
 246:Src/usbd_conf.c ****   __HAL_PCD_GATE_PHYCLOCK(hpcd);
 247:Src/usbd_conf.c ****   /* Inform USB library that core enters in suspend Mode. */
 248:Src/usbd_conf.c ****   USBD_LL_Suspend((USBD_HandleTypeDef*)hpcd->pData);
 249:Src/usbd_conf.c ****   /* Enter in STOP mode. */
 250:Src/usbd_conf.c ****   /* USER CODE BEGIN 2 */
 251:Src/usbd_conf.c ****   if (hpcd->Init.low_power_enable)
 252:Src/usbd_conf.c ****   {
 253:Src/usbd_conf.c ****     /* Set SLEEPDEEP bit and SleepOnExit of Cortex System Control Register. */
 254:Src/usbd_conf.c ****     SCB->SCR |= (uint32_t)((uint32_t)(SCB_SCR_SLEEPDEEP_Msk | SCB_SCR_SLEEPONEXIT_Msk));
 255:Src/usbd_conf.c ****   }
 256:Src/usbd_conf.c ****   /* USER CODE END 2 */
 257:Src/usbd_conf.c **** }
 258:Src/usbd_conf.c **** 
 259:Src/usbd_conf.c **** /**
 260:Src/usbd_conf.c ****   * @brief  Resume callback.
ARM GAS  /var/folders/k_/d4dbklhx7q1fs9lh20k9kt840000gn/T//cciJk3fn.s 			page 6


 261:Src/usbd_conf.c ****   * When Low power mode is enabled the debug cannot be used (IAR, Keil doesn't support it)
 262:Src/usbd_conf.c ****   * @param  hpcd: PCD handle
 263:Src/usbd_conf.c ****   * @retval None
 264:Src/usbd_conf.c ****   */
 265:Src/usbd_conf.c **** #if (USE_HAL_PCD_REGISTER_CALLBACKS == 1U)
 266:Src/usbd_conf.c **** static void PCD_ResumeCallback(PCD_HandleTypeDef *hpcd)
 267:Src/usbd_conf.c **** #else
 268:Src/usbd_conf.c **** void HAL_PCD_ResumeCallback(PCD_HandleTypeDef *hpcd)
 269:Src/usbd_conf.c **** #endif /* USE_HAL_PCD_REGISTER_CALLBACKS */
 270:Src/usbd_conf.c **** {
 271:Src/usbd_conf.c ****   __HAL_PCD_UNGATE_PHYCLOCK(hpcd);
 272:Src/usbd_conf.c **** 
 273:Src/usbd_conf.c ****   /* USER CODE BEGIN 3 */
 274:Src/usbd_conf.c ****   if (hpcd->Init.low_power_enable)
 275:Src/usbd_conf.c ****   {
 276:Src/usbd_conf.c ****     /* Reset SLEEPDEEP bit of Cortex System Control Register. */
 277:Src/usbd_conf.c ****     SCB->SCR &= (uint32_t)~((uint32_t)(SCB_SCR_SLEEPDEEP_Msk | SCB_SCR_SLEEPONEXIT_Msk));
 278:Src/usbd_conf.c ****     SystemClockConfig_Resume();
 279:Src/usbd_conf.c ****   }
 280:Src/usbd_conf.c ****   /* USER CODE END 3 */
 281:Src/usbd_conf.c ****   USBD_LL_Resume((USBD_HandleTypeDef*)hpcd->pData);
 282:Src/usbd_conf.c **** }
 283:Src/usbd_conf.c **** 
 284:Src/usbd_conf.c **** /**
 285:Src/usbd_conf.c ****   * @brief  ISOOUTIncomplete callback.
 286:Src/usbd_conf.c ****   * @param  hpcd: PCD handle
 287:Src/usbd_conf.c ****   * @param  epnum: Endpoint number
 288:Src/usbd_conf.c ****   * @retval None
 289:Src/usbd_conf.c ****   */
 290:Src/usbd_conf.c **** #if (USE_HAL_PCD_REGISTER_CALLBACKS == 1U)
 291:Src/usbd_conf.c **** static void PCD_ISOOUTIncompleteCallback(PCD_HandleTypeDef *hpcd, uint8_t epnum)
 292:Src/usbd_conf.c **** #else
 293:Src/usbd_conf.c **** void HAL_PCD_ISOOUTIncompleteCallback(PCD_HandleTypeDef *hpcd, uint8_t epnum)
 294:Src/usbd_conf.c **** #endif /* USE_HAL_PCD_REGISTER_CALLBACKS */
 295:Src/usbd_conf.c **** {
 296:Src/usbd_conf.c ****   USBD_LL_IsoOUTIncomplete((USBD_HandleTypeDef*)hpcd->pData, epnum);
 297:Src/usbd_conf.c **** }
 298:Src/usbd_conf.c **** 
 299:Src/usbd_conf.c **** /**
 300:Src/usbd_conf.c ****   * @brief  ISOINIncomplete callback.
 301:Src/usbd_conf.c ****   * @param  hpcd: PCD handle
 302:Src/usbd_conf.c ****   * @param  epnum: Endpoint number
 303:Src/usbd_conf.c ****   * @retval None
 304:Src/usbd_conf.c ****   */
 305:Src/usbd_conf.c **** #if (USE_HAL_PCD_REGISTER_CALLBACKS == 1U)
 306:Src/usbd_conf.c **** static void PCD_ISOINIncompleteCallback(PCD_HandleTypeDef *hpcd, uint8_t epnum)
 307:Src/usbd_conf.c **** #else
 308:Src/usbd_conf.c **** void HAL_PCD_ISOINIncompleteCallback(PCD_HandleTypeDef *hpcd, uint8_t epnum)
 309:Src/usbd_conf.c **** #endif /* USE_HAL_PCD_REGISTER_CALLBACKS */
 310:Src/usbd_conf.c **** {
 311:Src/usbd_conf.c ****   USBD_LL_IsoINIncomplete((USBD_HandleTypeDef*)hpcd->pData, epnum);
 312:Src/usbd_conf.c **** }
 313:Src/usbd_conf.c **** 
 314:Src/usbd_conf.c **** /**
 315:Src/usbd_conf.c ****   * @brief  Connect callback.
 316:Src/usbd_conf.c ****   * @param  hpcd: PCD handle
 317:Src/usbd_conf.c ****   * @retval None
ARM GAS  /var/folders/k_/d4dbklhx7q1fs9lh20k9kt840000gn/T//cciJk3fn.s 			page 7


 318:Src/usbd_conf.c ****   */
 319:Src/usbd_conf.c **** #if (USE_HAL_PCD_REGISTER_CALLBACKS == 1U)
 320:Src/usbd_conf.c **** static void PCD_ConnectCallback(PCD_HandleTypeDef *hpcd)
 321:Src/usbd_conf.c **** #else
 322:Src/usbd_conf.c **** void HAL_PCD_ConnectCallback(PCD_HandleTypeDef *hpcd)
 323:Src/usbd_conf.c **** #endif /* USE_HAL_PCD_REGISTER_CALLBACKS */
 324:Src/usbd_conf.c **** {
 325:Src/usbd_conf.c ****   USBD_LL_DevConnected((USBD_HandleTypeDef*)hpcd->pData);
 326:Src/usbd_conf.c **** }
 327:Src/usbd_conf.c **** 
 328:Src/usbd_conf.c **** /**
 329:Src/usbd_conf.c ****   * @brief  Disconnect callback.
 330:Src/usbd_conf.c ****   * @param  hpcd: PCD handle
 331:Src/usbd_conf.c ****   * @retval None
 332:Src/usbd_conf.c ****   */
 333:Src/usbd_conf.c **** #if (USE_HAL_PCD_REGISTER_CALLBACKS == 1U)
 334:Src/usbd_conf.c **** static void PCD_DisconnectCallback(PCD_HandleTypeDef *hpcd)
 335:Src/usbd_conf.c **** #else
 336:Src/usbd_conf.c **** void HAL_PCD_DisconnectCallback(PCD_HandleTypeDef *hpcd)
 337:Src/usbd_conf.c **** #endif /* USE_HAL_PCD_REGISTER_CALLBACKS */
 338:Src/usbd_conf.c **** {
 339:Src/usbd_conf.c ****   USBD_LL_DevDisconnected((USBD_HandleTypeDef*)hpcd->pData);
 340:Src/usbd_conf.c **** }
 341:Src/usbd_conf.c **** 
 342:Src/usbd_conf.c **** /*******************************************************************************
 343:Src/usbd_conf.c ****                        LL Driver Interface (USB Device Library --> PCD)
 344:Src/usbd_conf.c **** *******************************************************************************/
 345:Src/usbd_conf.c **** 
 346:Src/usbd_conf.c **** /**
 347:Src/usbd_conf.c ****   * @brief  Initializes the low level portion of the device driver.
 348:Src/usbd_conf.c ****   * @param  pdev: Device handle
 349:Src/usbd_conf.c ****   * @retval USBD status
 350:Src/usbd_conf.c ****   */
 351:Src/usbd_conf.c **** USBD_StatusTypeDef USBD_LL_Init(USBD_HandleTypeDef *pdev)
 352:Src/usbd_conf.c **** {
 353:Src/usbd_conf.c ****   /* Init USB Ip. */
 354:Src/usbd_conf.c ****   if (pdev->id == DEVICE_FS) {
 355:Src/usbd_conf.c ****   /* Enable USB power on Pwrctrl CR2 register. */
 356:Src/usbd_conf.c ****   /* Link the driver to the stack. */
 357:Src/usbd_conf.c ****   hpcd_USB_OTG_FS.pData = pdev;
 358:Src/usbd_conf.c ****   pdev->pData = &hpcd_USB_OTG_FS;
 359:Src/usbd_conf.c ****   
 360:Src/usbd_conf.c ****   hpcd_USB_OTG_FS.Instance = USB_OTG_FS;
 361:Src/usbd_conf.c ****   hpcd_USB_OTG_FS.Init.dev_endpoints = 6;
 362:Src/usbd_conf.c ****   hpcd_USB_OTG_FS.Init.speed = PCD_SPEED_FULL;
 363:Src/usbd_conf.c ****   hpcd_USB_OTG_FS.Init.phy_itface = PCD_PHY_EMBEDDED;
 364:Src/usbd_conf.c ****   hpcd_USB_OTG_FS.Init.Sof_enable = DISABLE;
 365:Src/usbd_conf.c ****   hpcd_USB_OTG_FS.Init.low_power_enable = DISABLE;
 366:Src/usbd_conf.c ****   hpcd_USB_OTG_FS.Init.lpm_enable = DISABLE;
 367:Src/usbd_conf.c ****   hpcd_USB_OTG_FS.Init.battery_charging_enable = DISABLE;
 368:Src/usbd_conf.c ****   hpcd_USB_OTG_FS.Init.use_dedicated_ep1 = DISABLE;
 369:Src/usbd_conf.c ****   hpcd_USB_OTG_FS.Init.vbus_sensing_enable = DISABLE;
 370:Src/usbd_conf.c ****   if (HAL_PCD_Init(&hpcd_USB_OTG_FS) != HAL_OK)
 371:Src/usbd_conf.c ****   {
 372:Src/usbd_conf.c ****     Error_Handler( );
 373:Src/usbd_conf.c ****   }
 374:Src/usbd_conf.c **** 
ARM GAS  /var/folders/k_/d4dbklhx7q1fs9lh20k9kt840000gn/T//cciJk3fn.s 			page 8


 375:Src/usbd_conf.c **** #if (USE_HAL_PCD_REGISTER_CALLBACKS == 1U)
 376:Src/usbd_conf.c ****   /* Register USB PCD CallBacks */
 377:Src/usbd_conf.c ****   HAL_PCD_RegisterCallback(&hpcd_USB_OTG_FS, HAL_PCD_SOF_CB_ID, PCD_SOFCallback);
 378:Src/usbd_conf.c ****   HAL_PCD_RegisterCallback(&hpcd_USB_OTG_FS, HAL_PCD_SETUPSTAGE_CB_ID, PCD_SetupStageCallback);
 379:Src/usbd_conf.c ****   HAL_PCD_RegisterCallback(&hpcd_USB_OTG_FS, HAL_PCD_RESET_CB_ID, PCD_ResetCallback);
 380:Src/usbd_conf.c ****   HAL_PCD_RegisterCallback(&hpcd_USB_OTG_FS, HAL_PCD_SUSPEND_CB_ID, PCD_SuspendCallback);
 381:Src/usbd_conf.c ****   HAL_PCD_RegisterCallback(&hpcd_USB_OTG_FS, HAL_PCD_RESUME_CB_ID, PCD_ResumeCallback);
 382:Src/usbd_conf.c ****   HAL_PCD_RegisterCallback(&hpcd_USB_OTG_FS, HAL_PCD_CONNECT_CB_ID, PCD_ConnectCallback);
 383:Src/usbd_conf.c ****   HAL_PCD_RegisterCallback(&hpcd_USB_OTG_FS, HAL_PCD_DISCONNECT_CB_ID, PCD_DisconnectCallback);
 384:Src/usbd_conf.c **** 
 385:Src/usbd_conf.c ****   HAL_PCD_RegisterDataOutStageCallback(&hpcd_USB_OTG_FS, PCD_DataOutStageCallback);
 386:Src/usbd_conf.c ****   HAL_PCD_RegisterDataInStageCallback(&hpcd_USB_OTG_FS, PCD_DataInStageCallback);
 387:Src/usbd_conf.c ****   HAL_PCD_RegisterIsoOutIncpltCallback(&hpcd_USB_OTG_FS, PCD_ISOOUTIncompleteCallback);
 388:Src/usbd_conf.c ****   HAL_PCD_RegisterIsoInIncpltCallback(&hpcd_USB_OTG_FS, PCD_ISOINIncompleteCallback);
 389:Src/usbd_conf.c **** #endif /* USE_HAL_PCD_REGISTER_CALLBACKS */
 390:Src/usbd_conf.c ****   HAL_PCDEx_SetRxFiFo(&hpcd_USB_OTG_FS, 0x80);
 391:Src/usbd_conf.c ****   HAL_PCDEx_SetTxFiFo(&hpcd_USB_OTG_FS, 0, 0x40);
 392:Src/usbd_conf.c ****   HAL_PCDEx_SetTxFiFo(&hpcd_USB_OTG_FS, 1, 0x80);
 393:Src/usbd_conf.c ****   }
 394:Src/usbd_conf.c ****   return USBD_OK;
 395:Src/usbd_conf.c **** }
 396:Src/usbd_conf.c **** 
 397:Src/usbd_conf.c **** /**
 398:Src/usbd_conf.c ****   * @brief  De-Initializes the low level portion of the device driver.
 399:Src/usbd_conf.c ****   * @param  pdev: Device handle
 400:Src/usbd_conf.c ****   * @retval USBD status
 401:Src/usbd_conf.c ****   */
 402:Src/usbd_conf.c **** USBD_StatusTypeDef USBD_LL_DeInit(USBD_HandleTypeDef *pdev)
 403:Src/usbd_conf.c **** {
 404:Src/usbd_conf.c ****   HAL_StatusTypeDef hal_status = HAL_OK;
 405:Src/usbd_conf.c ****   USBD_StatusTypeDef usb_status = USBD_OK;
 406:Src/usbd_conf.c **** 
 407:Src/usbd_conf.c ****   hal_status = HAL_PCD_DeInit(pdev->pData);
 408:Src/usbd_conf.c **** 
 409:Src/usbd_conf.c ****   switch (hal_status) {
 410:Src/usbd_conf.c ****     case HAL_OK :
 411:Src/usbd_conf.c ****       usb_status = USBD_OK;
 412:Src/usbd_conf.c ****     break;
 413:Src/usbd_conf.c ****     case HAL_ERROR :
 414:Src/usbd_conf.c ****       usb_status = USBD_FAIL;
 415:Src/usbd_conf.c ****     break;
 416:Src/usbd_conf.c ****     case HAL_BUSY :
 417:Src/usbd_conf.c ****       usb_status = USBD_BUSY;
 418:Src/usbd_conf.c ****     break;
 419:Src/usbd_conf.c ****     case HAL_TIMEOUT :
 420:Src/usbd_conf.c ****       usb_status = USBD_FAIL;
 421:Src/usbd_conf.c ****     break;
 422:Src/usbd_conf.c ****     default :
 423:Src/usbd_conf.c ****       usb_status = USBD_FAIL;
 424:Src/usbd_conf.c ****     break;
 425:Src/usbd_conf.c ****   }
 426:Src/usbd_conf.c ****   return usb_status; 
 427:Src/usbd_conf.c **** }
 428:Src/usbd_conf.c **** 
 429:Src/usbd_conf.c **** /**
 430:Src/usbd_conf.c ****   * @brief  Starts the low level portion of the device driver.
 431:Src/usbd_conf.c ****   * @param  pdev: Device handle
ARM GAS  /var/folders/k_/d4dbklhx7q1fs9lh20k9kt840000gn/T//cciJk3fn.s 			page 9


 432:Src/usbd_conf.c ****   * @retval USBD status
 433:Src/usbd_conf.c ****   */
 434:Src/usbd_conf.c **** USBD_StatusTypeDef USBD_LL_Start(USBD_HandleTypeDef *pdev)
 435:Src/usbd_conf.c **** {
 436:Src/usbd_conf.c ****   HAL_StatusTypeDef hal_status = HAL_OK;
 437:Src/usbd_conf.c ****   USBD_StatusTypeDef usb_status = USBD_OK;
 438:Src/usbd_conf.c ****  
 439:Src/usbd_conf.c ****   hal_status = HAL_PCD_Start(pdev->pData);
 440:Src/usbd_conf.c ****      
 441:Src/usbd_conf.c ****   switch (hal_status) {
 442:Src/usbd_conf.c ****     case HAL_OK :
 443:Src/usbd_conf.c ****       usb_status = USBD_OK;
 444:Src/usbd_conf.c ****     break;
 445:Src/usbd_conf.c ****     case HAL_ERROR :
 446:Src/usbd_conf.c ****       usb_status = USBD_FAIL;
 447:Src/usbd_conf.c ****     break;
 448:Src/usbd_conf.c ****     case HAL_BUSY :
 449:Src/usbd_conf.c ****       usb_status = USBD_BUSY;
 450:Src/usbd_conf.c ****     break;
 451:Src/usbd_conf.c ****     case HAL_TIMEOUT :
 452:Src/usbd_conf.c ****       usb_status = USBD_FAIL;
 453:Src/usbd_conf.c ****     break;
 454:Src/usbd_conf.c ****     default :
 455:Src/usbd_conf.c ****       usb_status = USBD_FAIL;
 456:Src/usbd_conf.c ****     break;
 457:Src/usbd_conf.c ****   }
 458:Src/usbd_conf.c ****   return usb_status;
 459:Src/usbd_conf.c **** }
 460:Src/usbd_conf.c **** 
 461:Src/usbd_conf.c **** /**
 462:Src/usbd_conf.c ****   * @brief  Stops the low level portion of the device driver.
 463:Src/usbd_conf.c ****   * @param  pdev: Device handle
 464:Src/usbd_conf.c ****   * @retval USBD status
 465:Src/usbd_conf.c ****   */
 466:Src/usbd_conf.c **** USBD_StatusTypeDef USBD_LL_Stop(USBD_HandleTypeDef *pdev)
 467:Src/usbd_conf.c **** {
 468:Src/usbd_conf.c ****   HAL_StatusTypeDef hal_status = HAL_OK;
 469:Src/usbd_conf.c ****   USBD_StatusTypeDef usb_status = USBD_OK;
 470:Src/usbd_conf.c **** 
 471:Src/usbd_conf.c ****   hal_status = HAL_PCD_Stop(pdev->pData);
 472:Src/usbd_conf.c **** 
 473:Src/usbd_conf.c ****   switch (hal_status) {
 474:Src/usbd_conf.c ****     case HAL_OK :
 475:Src/usbd_conf.c ****       usb_status = USBD_OK;
 476:Src/usbd_conf.c ****     break;
 477:Src/usbd_conf.c ****     case HAL_ERROR :
 478:Src/usbd_conf.c ****       usb_status = USBD_FAIL;
 479:Src/usbd_conf.c ****     break;
 480:Src/usbd_conf.c ****     case HAL_BUSY :
 481:Src/usbd_conf.c ****       usb_status = USBD_BUSY;
 482:Src/usbd_conf.c ****     break;
 483:Src/usbd_conf.c ****     case HAL_TIMEOUT :
 484:Src/usbd_conf.c ****       usb_status = USBD_FAIL;
 485:Src/usbd_conf.c ****     break;
 486:Src/usbd_conf.c ****     default :
 487:Src/usbd_conf.c ****       usb_status = USBD_FAIL;
 488:Src/usbd_conf.c ****     break;
ARM GAS  /var/folders/k_/d4dbklhx7q1fs9lh20k9kt840000gn/T//cciJk3fn.s 			page 10


 489:Src/usbd_conf.c ****   }
 490:Src/usbd_conf.c ****   return usb_status;
 491:Src/usbd_conf.c **** }
 492:Src/usbd_conf.c **** 
 493:Src/usbd_conf.c **** /**
 494:Src/usbd_conf.c ****   * @brief  Opens an endpoint of the low level driver.
 495:Src/usbd_conf.c ****   * @param  pdev: Device handle
 496:Src/usbd_conf.c ****   * @param  ep_addr: Endpoint number
 497:Src/usbd_conf.c ****   * @param  ep_type: Endpoint type
 498:Src/usbd_conf.c ****   * @param  ep_mps: Endpoint max packet size
 499:Src/usbd_conf.c ****   * @retval USBD status
 500:Src/usbd_conf.c ****   */
 501:Src/usbd_conf.c **** USBD_StatusTypeDef USBD_LL_OpenEP(USBD_HandleTypeDef *pdev, uint8_t ep_addr, uint8_t ep_type, uint1
 502:Src/usbd_conf.c **** {
 503:Src/usbd_conf.c ****   HAL_StatusTypeDef hal_status = HAL_OK;
 504:Src/usbd_conf.c ****   USBD_StatusTypeDef usb_status = USBD_OK;
 505:Src/usbd_conf.c **** 
 506:Src/usbd_conf.c ****   hal_status = HAL_PCD_EP_Open(pdev->pData, ep_addr, ep_mps, ep_type);
 507:Src/usbd_conf.c **** 
 508:Src/usbd_conf.c ****   switch (hal_status) {
 509:Src/usbd_conf.c ****     case HAL_OK :
 510:Src/usbd_conf.c ****       usb_status = USBD_OK;
 511:Src/usbd_conf.c ****     break;
 512:Src/usbd_conf.c ****     case HAL_ERROR :
 513:Src/usbd_conf.c ****       usb_status = USBD_FAIL;
 514:Src/usbd_conf.c ****     break;
 515:Src/usbd_conf.c ****     case HAL_BUSY :
 516:Src/usbd_conf.c ****       usb_status = USBD_BUSY;
 517:Src/usbd_conf.c ****     break;
 518:Src/usbd_conf.c ****     case HAL_TIMEOUT :
 519:Src/usbd_conf.c ****       usb_status = USBD_FAIL;
 520:Src/usbd_conf.c ****     break;
 521:Src/usbd_conf.c ****     default :
 522:Src/usbd_conf.c ****       usb_status = USBD_FAIL;
 523:Src/usbd_conf.c ****     break;
 524:Src/usbd_conf.c ****   }
 525:Src/usbd_conf.c ****   return usb_status;
 526:Src/usbd_conf.c **** }
 527:Src/usbd_conf.c **** 
 528:Src/usbd_conf.c **** /**
 529:Src/usbd_conf.c ****   * @brief  Closes an endpoint of the low level driver.
 530:Src/usbd_conf.c ****   * @param  pdev: Device handle
 531:Src/usbd_conf.c ****   * @param  ep_addr: Endpoint number
 532:Src/usbd_conf.c ****   * @retval USBD status
 533:Src/usbd_conf.c ****   */
 534:Src/usbd_conf.c **** USBD_StatusTypeDef USBD_LL_CloseEP(USBD_HandleTypeDef *pdev, uint8_t ep_addr)
 535:Src/usbd_conf.c **** {
 536:Src/usbd_conf.c ****   HAL_StatusTypeDef hal_status = HAL_OK;
 537:Src/usbd_conf.c ****   USBD_StatusTypeDef usb_status = USBD_OK;
 538:Src/usbd_conf.c ****   
 539:Src/usbd_conf.c ****   hal_status = HAL_PCD_EP_Close(pdev->pData, ep_addr);
 540:Src/usbd_conf.c ****       
 541:Src/usbd_conf.c ****   switch (hal_status) {
 542:Src/usbd_conf.c ****     case HAL_OK :
 543:Src/usbd_conf.c ****       usb_status = USBD_OK;
 544:Src/usbd_conf.c ****     break;
 545:Src/usbd_conf.c ****     case HAL_ERROR :
ARM GAS  /var/folders/k_/d4dbklhx7q1fs9lh20k9kt840000gn/T//cciJk3fn.s 			page 11


 546:Src/usbd_conf.c ****       usb_status = USBD_FAIL;
 547:Src/usbd_conf.c ****     break;
 548:Src/usbd_conf.c ****     case HAL_BUSY :
 549:Src/usbd_conf.c ****       usb_status = USBD_BUSY;
 550:Src/usbd_conf.c ****     break;
 551:Src/usbd_conf.c ****     case HAL_TIMEOUT :
 552:Src/usbd_conf.c ****       usb_status = USBD_FAIL;
 553:Src/usbd_conf.c ****     break;
 554:Src/usbd_conf.c ****     default :
 555:Src/usbd_conf.c ****       usb_status = USBD_FAIL;
 556:Src/usbd_conf.c ****     break;
 557:Src/usbd_conf.c ****   }
 558:Src/usbd_conf.c ****   return usb_status;  
 559:Src/usbd_conf.c **** }
 560:Src/usbd_conf.c **** 
 561:Src/usbd_conf.c **** /**
 562:Src/usbd_conf.c ****   * @brief  Flushes an endpoint of the Low Level Driver.
 563:Src/usbd_conf.c ****   * @param  pdev: Device handle
 564:Src/usbd_conf.c ****   * @param  ep_addr: Endpoint number
 565:Src/usbd_conf.c ****   * @retval USBD status
 566:Src/usbd_conf.c ****   */
 567:Src/usbd_conf.c **** USBD_StatusTypeDef USBD_LL_FlushEP(USBD_HandleTypeDef *pdev, uint8_t ep_addr)
 568:Src/usbd_conf.c **** {
 569:Src/usbd_conf.c ****   HAL_StatusTypeDef hal_status = HAL_OK;
 570:Src/usbd_conf.c ****   USBD_StatusTypeDef usb_status = USBD_OK;
 571:Src/usbd_conf.c ****   
 572:Src/usbd_conf.c ****   hal_status = HAL_PCD_EP_Flush(pdev->pData, ep_addr);
 573:Src/usbd_conf.c ****       
 574:Src/usbd_conf.c ****   switch (hal_status) {
 575:Src/usbd_conf.c ****     case HAL_OK :
 576:Src/usbd_conf.c ****       usb_status = USBD_OK;
 577:Src/usbd_conf.c ****     break;
 578:Src/usbd_conf.c ****     case HAL_ERROR :
 579:Src/usbd_conf.c ****       usb_status = USBD_FAIL;
 580:Src/usbd_conf.c ****     break;
 581:Src/usbd_conf.c ****     case HAL_BUSY :
 582:Src/usbd_conf.c ****       usb_status = USBD_BUSY;
 583:Src/usbd_conf.c ****     break;
 584:Src/usbd_conf.c ****     case HAL_TIMEOUT :
 585:Src/usbd_conf.c ****       usb_status = USBD_FAIL;
 586:Src/usbd_conf.c ****     break;
 587:Src/usbd_conf.c ****     default :
 588:Src/usbd_conf.c ****       usb_status = USBD_FAIL;
 589:Src/usbd_conf.c ****     break;
 590:Src/usbd_conf.c ****   }
 591:Src/usbd_conf.c ****   return usb_status;  
 592:Src/usbd_conf.c **** }
 593:Src/usbd_conf.c **** 
 594:Src/usbd_conf.c **** /**
 595:Src/usbd_conf.c ****   * @brief  Sets a Stall condition on an endpoint of the Low Level Driver.
 596:Src/usbd_conf.c ****   * @param  pdev: Device handle
 597:Src/usbd_conf.c ****   * @param  ep_addr: Endpoint number
 598:Src/usbd_conf.c ****   * @retval USBD status
 599:Src/usbd_conf.c ****   */
 600:Src/usbd_conf.c **** USBD_StatusTypeDef USBD_LL_StallEP(USBD_HandleTypeDef *pdev, uint8_t ep_addr)
 601:Src/usbd_conf.c **** {
 602:Src/usbd_conf.c ****   HAL_StatusTypeDef hal_status = HAL_OK;
ARM GAS  /var/folders/k_/d4dbklhx7q1fs9lh20k9kt840000gn/T//cciJk3fn.s 			page 12


 603:Src/usbd_conf.c ****   USBD_StatusTypeDef usb_status = USBD_OK;
 604:Src/usbd_conf.c ****   
 605:Src/usbd_conf.c ****   hal_status = HAL_PCD_EP_SetStall(pdev->pData, ep_addr);
 606:Src/usbd_conf.c **** 
 607:Src/usbd_conf.c ****   switch (hal_status) {
 608:Src/usbd_conf.c ****     case HAL_OK :
 609:Src/usbd_conf.c ****       usb_status = USBD_OK;
 610:Src/usbd_conf.c ****     break;
 611:Src/usbd_conf.c ****     case HAL_ERROR :
 612:Src/usbd_conf.c ****       usb_status = USBD_FAIL;
 613:Src/usbd_conf.c ****     break;
 614:Src/usbd_conf.c ****     case HAL_BUSY :
 615:Src/usbd_conf.c ****       usb_status = USBD_BUSY;
 616:Src/usbd_conf.c ****     break;
 617:Src/usbd_conf.c ****     case HAL_TIMEOUT :
 618:Src/usbd_conf.c ****       usb_status = USBD_FAIL;
 619:Src/usbd_conf.c ****     break;
 620:Src/usbd_conf.c ****     default :
 621:Src/usbd_conf.c ****       usb_status = USBD_FAIL;
 622:Src/usbd_conf.c ****     break;
 623:Src/usbd_conf.c ****   }
 624:Src/usbd_conf.c ****   return usb_status;  
 625:Src/usbd_conf.c **** }
 626:Src/usbd_conf.c **** 
 627:Src/usbd_conf.c **** /**
 628:Src/usbd_conf.c ****   * @brief  Clears a Stall condition on an endpoint of the Low Level Driver.
 629:Src/usbd_conf.c ****   * @param  pdev: Device handle
 630:Src/usbd_conf.c ****   * @param  ep_addr: Endpoint number
 631:Src/usbd_conf.c ****   * @retval USBD status
 632:Src/usbd_conf.c ****   */
 633:Src/usbd_conf.c **** USBD_StatusTypeDef USBD_LL_ClearStallEP(USBD_HandleTypeDef *pdev, uint8_t ep_addr)
 634:Src/usbd_conf.c **** {
 635:Src/usbd_conf.c ****   HAL_StatusTypeDef hal_status = HAL_OK;
 636:Src/usbd_conf.c ****   USBD_StatusTypeDef usb_status = USBD_OK;
 637:Src/usbd_conf.c ****   
 638:Src/usbd_conf.c ****   hal_status = HAL_PCD_EP_ClrStall(pdev->pData, ep_addr);  
 639:Src/usbd_conf.c ****      
 640:Src/usbd_conf.c ****   switch (hal_status) {
 641:Src/usbd_conf.c ****     case HAL_OK :
 642:Src/usbd_conf.c ****       usb_status = USBD_OK;
 643:Src/usbd_conf.c ****     break;
 644:Src/usbd_conf.c ****     case HAL_ERROR :
 645:Src/usbd_conf.c ****       usb_status = USBD_FAIL;
 646:Src/usbd_conf.c ****     break;
 647:Src/usbd_conf.c ****     case HAL_BUSY :
 648:Src/usbd_conf.c ****       usb_status = USBD_BUSY;
 649:Src/usbd_conf.c ****     break;
 650:Src/usbd_conf.c ****     case HAL_TIMEOUT :
 651:Src/usbd_conf.c ****       usb_status = USBD_FAIL;
 652:Src/usbd_conf.c ****     break;
 653:Src/usbd_conf.c ****     default :
 654:Src/usbd_conf.c ****       usb_status = USBD_FAIL;
 655:Src/usbd_conf.c ****     break;
 656:Src/usbd_conf.c ****   }
 657:Src/usbd_conf.c ****   return usb_status; 
 658:Src/usbd_conf.c **** }
 659:Src/usbd_conf.c **** 
ARM GAS  /var/folders/k_/d4dbklhx7q1fs9lh20k9kt840000gn/T//cciJk3fn.s 			page 13


 660:Src/usbd_conf.c **** /**
 661:Src/usbd_conf.c ****   * @brief  Returns Stall condition.
 662:Src/usbd_conf.c ****   * @param  pdev: Device handle
 663:Src/usbd_conf.c ****   * @param  ep_addr: Endpoint number
 664:Src/usbd_conf.c ****   * @retval Stall (1: Yes, 0: No)
 665:Src/usbd_conf.c ****   */
 666:Src/usbd_conf.c **** uint8_t USBD_LL_IsStallEP(USBD_HandleTypeDef *pdev, uint8_t ep_addr)
 667:Src/usbd_conf.c **** {
 668:Src/usbd_conf.c ****   PCD_HandleTypeDef *hpcd = (PCD_HandleTypeDef*) pdev->pData;
 669:Src/usbd_conf.c ****   
 670:Src/usbd_conf.c ****   if((ep_addr & 0x80) == 0x80)
 671:Src/usbd_conf.c ****   {
 672:Src/usbd_conf.c ****     return hpcd->IN_ep[ep_addr & 0x7F].is_stall; 
 673:Src/usbd_conf.c ****   }
 674:Src/usbd_conf.c ****   else
 675:Src/usbd_conf.c ****   {
 676:Src/usbd_conf.c ****     return hpcd->OUT_ep[ep_addr & 0x7F].is_stall; 
 677:Src/usbd_conf.c ****   }
 678:Src/usbd_conf.c **** }
 679:Src/usbd_conf.c **** 
 680:Src/usbd_conf.c **** /**
 681:Src/usbd_conf.c ****   * @brief  Assigns a USB address to the device.
 682:Src/usbd_conf.c ****   * @param  pdev: Device handle
 683:Src/usbd_conf.c ****   * @param  dev_addr: Device address
 684:Src/usbd_conf.c ****   * @retval USBD status
 685:Src/usbd_conf.c ****   */
 686:Src/usbd_conf.c **** USBD_StatusTypeDef USBD_LL_SetUSBAddress(USBD_HandleTypeDef *pdev, uint8_t dev_addr)
 687:Src/usbd_conf.c **** {
 688:Src/usbd_conf.c ****   HAL_StatusTypeDef hal_status = HAL_OK;
 689:Src/usbd_conf.c ****   USBD_StatusTypeDef usb_status = USBD_OK;
 690:Src/usbd_conf.c ****   
 691:Src/usbd_conf.c ****   hal_status = HAL_PCD_SetAddress(pdev->pData, dev_addr);
 692:Src/usbd_conf.c ****      
 693:Src/usbd_conf.c ****   switch (hal_status) {
 694:Src/usbd_conf.c ****     case HAL_OK :
 695:Src/usbd_conf.c ****       usb_status = USBD_OK;
 696:Src/usbd_conf.c ****     break;
 697:Src/usbd_conf.c ****     case HAL_ERROR :
 698:Src/usbd_conf.c ****       usb_status = USBD_FAIL;
 699:Src/usbd_conf.c ****     break;
 700:Src/usbd_conf.c ****     case HAL_BUSY :
 701:Src/usbd_conf.c ****       usb_status = USBD_BUSY;
 702:Src/usbd_conf.c ****     break;
 703:Src/usbd_conf.c ****     case HAL_TIMEOUT :
 704:Src/usbd_conf.c ****       usb_status = USBD_FAIL;
 705:Src/usbd_conf.c ****     break;
 706:Src/usbd_conf.c ****     default :
 707:Src/usbd_conf.c ****       usb_status = USBD_FAIL;
 708:Src/usbd_conf.c ****     break;
 709:Src/usbd_conf.c ****   }
 710:Src/usbd_conf.c ****   return usb_status;  
 711:Src/usbd_conf.c **** }
 712:Src/usbd_conf.c **** 
 713:Src/usbd_conf.c **** /**
 714:Src/usbd_conf.c ****   * @brief  Transmits data over an endpoint.
 715:Src/usbd_conf.c ****   * @param  pdev: Device handle
 716:Src/usbd_conf.c ****   * @param  ep_addr: Endpoint number
ARM GAS  /var/folders/k_/d4dbklhx7q1fs9lh20k9kt840000gn/T//cciJk3fn.s 			page 14


 717:Src/usbd_conf.c ****   * @param  pbuf: Pointer to data to be sent
 718:Src/usbd_conf.c ****   * @param  size: Data size    
 719:Src/usbd_conf.c ****   * @retval USBD status
 720:Src/usbd_conf.c ****   */
 721:Src/usbd_conf.c **** USBD_StatusTypeDef USBD_LL_Transmit(USBD_HandleTypeDef *pdev, uint8_t ep_addr, uint8_t *pbuf, uint1
 722:Src/usbd_conf.c **** {
 723:Src/usbd_conf.c ****   HAL_StatusTypeDef hal_status = HAL_OK;
 724:Src/usbd_conf.c ****   USBD_StatusTypeDef usb_status = USBD_OK;
 725:Src/usbd_conf.c **** 
 726:Src/usbd_conf.c ****   hal_status = HAL_PCD_EP_Transmit(pdev->pData, ep_addr, pbuf, size);
 727:Src/usbd_conf.c ****      
 728:Src/usbd_conf.c ****   switch (hal_status) {
 729:Src/usbd_conf.c ****     case HAL_OK :
 730:Src/usbd_conf.c ****       usb_status = USBD_OK;
 731:Src/usbd_conf.c ****     break;
 732:Src/usbd_conf.c ****     case HAL_ERROR :
 733:Src/usbd_conf.c ****       usb_status = USBD_FAIL;
 734:Src/usbd_conf.c ****     break;
 735:Src/usbd_conf.c ****     case HAL_BUSY :
 736:Src/usbd_conf.c ****       usb_status = USBD_BUSY;
 737:Src/usbd_conf.c ****     break;
 738:Src/usbd_conf.c ****     case HAL_TIMEOUT :
 739:Src/usbd_conf.c ****       usb_status = USBD_FAIL;
 740:Src/usbd_conf.c ****     break;
 741:Src/usbd_conf.c ****     default :
 742:Src/usbd_conf.c ****       usb_status = USBD_FAIL;
 743:Src/usbd_conf.c ****     break;
 744:Src/usbd_conf.c ****   }
 745:Src/usbd_conf.c ****   return usb_status;    
 746:Src/usbd_conf.c **** }
 747:Src/usbd_conf.c **** 
 748:Src/usbd_conf.c **** /**
 749:Src/usbd_conf.c ****   * @brief  Prepares an endpoint for reception.
 750:Src/usbd_conf.c ****   * @param  pdev: Device handle
 751:Src/usbd_conf.c ****   * @param  ep_addr: Endpoint number
 752:Src/usbd_conf.c ****   * @param  pbuf: Pointer to data to be received
 753:Src/usbd_conf.c ****   * @param  size: Data size
 754:Src/usbd_conf.c ****   * @retval USBD status
 755:Src/usbd_conf.c ****   */
 756:Src/usbd_conf.c **** USBD_StatusTypeDef USBD_LL_PrepareReceive(USBD_HandleTypeDef *pdev, uint8_t ep_addr, uint8_t *pbuf,
 757:Src/usbd_conf.c **** {
 758:Src/usbd_conf.c ****   HAL_StatusTypeDef hal_status = HAL_OK;
 759:Src/usbd_conf.c ****   USBD_StatusTypeDef usb_status = USBD_OK;
 760:Src/usbd_conf.c **** 
 761:Src/usbd_conf.c ****   hal_status = HAL_PCD_EP_Receive(pdev->pData, ep_addr, pbuf, size);
 762:Src/usbd_conf.c ****      
 763:Src/usbd_conf.c ****   switch (hal_status) {
 764:Src/usbd_conf.c ****     case HAL_OK :
 765:Src/usbd_conf.c ****       usb_status = USBD_OK;
 766:Src/usbd_conf.c ****     break;
 767:Src/usbd_conf.c ****     case HAL_ERROR :
 768:Src/usbd_conf.c ****       usb_status = USBD_FAIL;
 769:Src/usbd_conf.c ****     break;
 770:Src/usbd_conf.c ****     case HAL_BUSY :
 771:Src/usbd_conf.c ****       usb_status = USBD_BUSY;
 772:Src/usbd_conf.c ****     break;
 773:Src/usbd_conf.c ****     case HAL_TIMEOUT :
ARM GAS  /var/folders/k_/d4dbklhx7q1fs9lh20k9kt840000gn/T//cciJk3fn.s 			page 15


 774:Src/usbd_conf.c ****       usb_status = USBD_FAIL;
 775:Src/usbd_conf.c ****     break;
 776:Src/usbd_conf.c ****     default :
 777:Src/usbd_conf.c ****       usb_status = USBD_FAIL;
 778:Src/usbd_conf.c ****     break;
 779:Src/usbd_conf.c ****   }
 780:Src/usbd_conf.c ****   return usb_status; 
 781:Src/usbd_conf.c **** }
 782:Src/usbd_conf.c **** 
 783:Src/usbd_conf.c **** /**
 784:Src/usbd_conf.c ****   * @brief  Returns the last transfered packet size.
 785:Src/usbd_conf.c ****   * @param  pdev: Device handle
 786:Src/usbd_conf.c ****   * @param  ep_addr: Endpoint number
 787:Src/usbd_conf.c ****   * @retval Recived Data Size
 788:Src/usbd_conf.c ****   */
 789:Src/usbd_conf.c **** uint32_t USBD_LL_GetRxDataSize(USBD_HandleTypeDef *pdev, uint8_t ep_addr)
 790:Src/usbd_conf.c **** {
 791:Src/usbd_conf.c ****   return HAL_PCD_EP_GetRxCount((PCD_HandleTypeDef*) pdev->pData, ep_addr);
 792:Src/usbd_conf.c **** }
 793:Src/usbd_conf.c **** 
 794:Src/usbd_conf.c **** /**
 795:Src/usbd_conf.c ****   * @brief  Send LPM message to user layer
 796:Src/usbd_conf.c ****   * @param  hpcd: PCD handle
 797:Src/usbd_conf.c ****   * @param  msg: LPM message
 798:Src/usbd_conf.c ****   * @retval None
 799:Src/usbd_conf.c ****   */
 800:Src/usbd_conf.c **** void HAL_PCDEx_LPM_Callback(PCD_HandleTypeDef *hpcd, PCD_LPM_MsgTypeDef msg)
 801:Src/usbd_conf.c **** {
 802:Src/usbd_conf.c ****   switch (msg)
 803:Src/usbd_conf.c ****   {
 804:Src/usbd_conf.c ****   case PCD_LPM_L0_ACTIVE:
 805:Src/usbd_conf.c ****     if (hpcd->Init.low_power_enable)
 806:Src/usbd_conf.c ****     {
 807:Src/usbd_conf.c ****       SystemClockConfig_Resume();
 808:Src/usbd_conf.c ****       
 809:Src/usbd_conf.c ****       /* Reset SLEEPDEEP bit of Cortex System Control Register. */
 810:Src/usbd_conf.c ****       SCB->SCR &= (uint32_t)~((uint32_t)(SCB_SCR_SLEEPDEEP_Msk | SCB_SCR_SLEEPONEXIT_Msk));
 811:Src/usbd_conf.c ****     }
 812:Src/usbd_conf.c ****     __HAL_PCD_UNGATE_PHYCLOCK(hpcd);
 813:Src/usbd_conf.c ****     USBD_LL_Resume(hpcd->pData);
 814:Src/usbd_conf.c ****     break;
 815:Src/usbd_conf.c ****     
 816:Src/usbd_conf.c ****   case PCD_LPM_L1_ACTIVE:
 817:Src/usbd_conf.c ****     __HAL_PCD_GATE_PHYCLOCK(hpcd);
 818:Src/usbd_conf.c ****     USBD_LL_Suspend(hpcd->pData);
 819:Src/usbd_conf.c ****     
 820:Src/usbd_conf.c ****     /* Enter in STOP mode. */
 821:Src/usbd_conf.c ****     if (hpcd->Init.low_power_enable)
 822:Src/usbd_conf.c ****     {   
 823:Src/usbd_conf.c ****       /* Set SLEEPDEEP bit and SleepOnExit of Cortex System Control Register. */
 824:Src/usbd_conf.c ****       SCB->SCR |= (uint32_t)((uint32_t)(SCB_SCR_SLEEPDEEP_Msk | SCB_SCR_SLEEPONEXIT_Msk));
 825:Src/usbd_conf.c ****     }
 826:Src/usbd_conf.c ****     break;   
 827:Src/usbd_conf.c ****   }
 828:Src/usbd_conf.c **** }
 829:Src/usbd_conf.c **** 
 830:Src/usbd_conf.c **** /**
ARM GAS  /var/folders/k_/d4dbklhx7q1fs9lh20k9kt840000gn/T//cciJk3fn.s 			page 16


 831:Src/usbd_conf.c ****   * @brief  Delays routine for the USB Device Library.
 832:Src/usbd_conf.c ****   * @param  Delay: Delay in ms
 833:Src/usbd_conf.c ****   * @retval None
 834:Src/usbd_conf.c ****   */
 835:Src/usbd_conf.c **** void USBD_LL_Delay(uint32_t Delay)
 836:Src/usbd_conf.c **** {
 837:Src/usbd_conf.c ****   HAL_Delay(Delay);
 838:Src/usbd_conf.c **** }
 839:Src/usbd_conf.c **** 
 840:Src/usbd_conf.c **** /**
 841:Src/usbd_conf.c ****   * @brief  Static single allocation.
 842:Src/usbd_conf.c ****   * @param  size: Size of allocated memory
 843:Src/usbd_conf.c ****   * @retval None
 844:Src/usbd_conf.c ****   */
 845:Src/usbd_conf.c **** void *USBD_static_malloc(uint32_t size)
 846:Src/usbd_conf.c **** {
 847:Src/usbd_conf.c ****   static uint32_t mem[(sizeof(USBD_CDC_HandleTypeDef)/4)+1];/* On 32-bit boundary */
 848:Src/usbd_conf.c ****   return mem;
 849:Src/usbd_conf.c **** }
 850:Src/usbd_conf.c **** 
 851:Src/usbd_conf.c **** /**
 852:Src/usbd_conf.c ****   * @brief  Dummy memory free
 853:Src/usbd_conf.c ****   * @param  p: Pointer to allocated  memory address
 854:Src/usbd_conf.c ****   * @retval None
 855:Src/usbd_conf.c ****   */
 856:Src/usbd_conf.c **** void USBD_static_free(void *p)
 857:Src/usbd_conf.c **** {
 858:Src/usbd_conf.c **** 
 859:Src/usbd_conf.c **** }
 860:Src/usbd_conf.c **** 
 861:Src/usbd_conf.c **** /* USER CODE BEGIN 5 */
 862:Src/usbd_conf.c **** /**
 863:Src/usbd_conf.c ****   * @brief  Configures system clock after wake-up from USB resume callBack:
 864:Src/usbd_conf.c ****   *         enable HSI, PLL and select PLL as system clock source.
 865:Src/usbd_conf.c ****   * @retval None
 866:Src/usbd_conf.c ****   */
 867:Src/usbd_conf.c **** static void SystemClockConfig_Resume(void)
 868:Src/usbd_conf.c **** {
  27              		.loc 1 868 0
  28              		.cfi_startproc
  29              		@ args = 0, pretend = 0, frame = 0
  30              		@ frame_needed = 0, uses_anonymous_args = 0
  31 0000 08B5     		push	{r3, lr}
  32              	.LCFI0:
  33              		.cfi_def_cfa_offset 8
  34              		.cfi_offset 3, -8
  35              		.cfi_offset 14, -4
 869:Src/usbd_conf.c ****   SystemClock_Config();
  36              		.loc 1 869 0
  37 0002 FFF7FEFF 		bl	SystemClock_Config
  38              	.LVL0:
 870:Src/usbd_conf.c **** }
  39              		.loc 1 870 0
  40 0006 08BD     		pop	{r3, pc}
  41              		.cfi_endproc
  42              	.LFE164:
  44              		.section	.text.HAL_PCD_MspInit,"ax",%progbits
ARM GAS  /var/folders/k_/d4dbklhx7q1fs9lh20k9kt840000gn/T//cciJk3fn.s 			page 17


  45              		.align	1
  46              		.global	HAL_PCD_MspInit
  47              		.syntax unified
  48              		.thumb
  49              		.thumb_func
  50              		.fpu fpv4-sp-d16
  52              	HAL_PCD_MspInit:
  53              	.LFB133:
  71:Src/usbd_conf.c ****   GPIO_InitTypeDef GPIO_InitStruct = {0};
  54              		.loc 1 71 0
  55              		.cfi_startproc
  56              		@ args = 0, pretend = 0, frame = 32
  57              		@ frame_needed = 0, uses_anonymous_args = 0
  58              	.LVL1:
  59 0000 10B5     		push	{r4, lr}
  60              	.LCFI1:
  61              		.cfi_def_cfa_offset 8
  62              		.cfi_offset 4, -8
  63              		.cfi_offset 14, -4
  64 0002 88B0     		sub	sp, sp, #32
  65              	.LCFI2:
  66              		.cfi_def_cfa_offset 40
  72:Src/usbd_conf.c ****   if(pcdHandle->Instance==USB_OTG_FS)
  67              		.loc 1 72 0
  68 0004 0023     		movs	r3, #0
  69 0006 0393     		str	r3, [sp, #12]
  70 0008 0493     		str	r3, [sp, #16]
  71 000a 0593     		str	r3, [sp, #20]
  72 000c 0693     		str	r3, [sp, #24]
  73 000e 0793     		str	r3, [sp, #28]
  73:Src/usbd_conf.c ****   {
  74              		.loc 1 73 0
  75 0010 0368     		ldr	r3, [r0]
  76 0012 B3F1A04F 		cmp	r3, #1342177280
  77 0016 01D0     		beq	.L8
  78              	.LVL2:
  79              	.L3:
 113:Src/usbd_conf.c **** 
  80              		.loc 1 113 0
  81 0018 08B0     		add	sp, sp, #32
  82              	.LCFI3:
  83              		.cfi_remember_state
  84              		.cfi_def_cfa_offset 8
  85              		@ sp needed
  86 001a 10BD     		pop	{r4, pc}
  87              	.LVL3:
  88              	.L8:
  89              	.LCFI4:
  90              		.cfi_restore_state
  91              	.LBB2:
  79:Src/usbd_conf.c ****     /**USB_OTG_FS GPIO Configuration    
  92              		.loc 1 79 0
  93 001c 1F4C     		ldr	r4, .L9
  94 001e E36C     		ldr	r3, [r4, #76]
  95 0020 43F00103 		orr	r3, r3, #1
  96 0024 E364     		str	r3, [r4, #76]
  97 0026 E36C     		ldr	r3, [r4, #76]
ARM GAS  /var/folders/k_/d4dbklhx7q1fs9lh20k9kt840000gn/T//cciJk3fn.s 			page 18


  98 0028 03F00103 		and	r3, r3, #1
  99 002c 0093     		str	r3, [sp]
 100 002e 009B     		ldr	r3, [sp]
 101              	.LBE2:
  84:Src/usbd_conf.c ****     GPIO_InitStruct.Mode = GPIO_MODE_AF_PP;
 102              		.loc 1 84 0
 103 0030 4FF4C053 		mov	r3, #6144
 104 0034 0393     		str	r3, [sp, #12]
  85:Src/usbd_conf.c ****     GPIO_InitStruct.Pull = GPIO_NOPULL;
 105              		.loc 1 85 0
 106 0036 0223     		movs	r3, #2
 107 0038 0493     		str	r3, [sp, #16]
  87:Src/usbd_conf.c ****     GPIO_InitStruct.Alternate = GPIO_AF10_OTG_FS;
 108              		.loc 1 87 0
 109 003a 0323     		movs	r3, #3
 110 003c 0693     		str	r3, [sp, #24]
  88:Src/usbd_conf.c ****     HAL_GPIO_Init(GPIOA, &GPIO_InitStruct);
 111              		.loc 1 88 0
 112 003e 0A23     		movs	r3, #10
 113 0040 0793     		str	r3, [sp, #28]
  89:Src/usbd_conf.c **** 
 114              		.loc 1 89 0
 115 0042 03A9     		add	r1, sp, #12
 116 0044 4FF09040 		mov	r0, #1207959552
 117              	.LVL4:
 118 0048 FFF7FEFF 		bl	HAL_GPIO_Init
 119              	.LVL5:
 120              	.LBB3:
  92:Src/usbd_conf.c **** 
 121              		.loc 1 92 0
 122 004c E36C     		ldr	r3, [r4, #76]
 123 004e 43F48053 		orr	r3, r3, #4096
 124 0052 E364     		str	r3, [r4, #76]
 125 0054 E36C     		ldr	r3, [r4, #76]
 126 0056 03F48053 		and	r3, r3, #4096
 127 005a 0193     		str	r3, [sp, #4]
 128 005c 019B     		ldr	r3, [sp, #4]
 129              	.LBE3:
  95:Src/usbd_conf.c ****     {
 130              		.loc 1 95 0
 131 005e A36D     		ldr	r3, [r4, #88]
 132 0060 13F0805F 		tst	r3, #268435456
 133 0064 17D1     		bne	.L5
 134              	.LBB4:
  97:Src/usbd_conf.c ****       HAL_PWREx_EnableVddUSB();
 135              		.loc 1 97 0
 136 0066 A36D     		ldr	r3, [r4, #88]
 137 0068 43F08053 		orr	r3, r3, #268435456
 138 006c A365     		str	r3, [r4, #88]
 139 006e A36D     		ldr	r3, [r4, #88]
 140 0070 03F08053 		and	r3, r3, #268435456
 141 0074 0293     		str	r3, [sp, #8]
 142 0076 029B     		ldr	r3, [sp, #8]
 143              	.LBE4:
  98:Src/usbd_conf.c ****       __HAL_RCC_PWR_CLK_DISABLE();
 144              		.loc 1 98 0
 145 0078 FFF7FEFF 		bl	HAL_PWREx_EnableVddUSB
ARM GAS  /var/folders/k_/d4dbklhx7q1fs9lh20k9kt840000gn/T//cciJk3fn.s 			page 19


 146              	.LVL6:
  99:Src/usbd_conf.c ****     }
 147              		.loc 1 99 0
 148 007c A36D     		ldr	r3, [r4, #88]
 149 007e 23F08053 		bic	r3, r3, #268435456
 150 0082 A365     		str	r3, [r4, #88]
 151              	.L6:
 107:Src/usbd_conf.c ****     HAL_NVIC_EnableIRQ(OTG_FS_IRQn);
 152              		.loc 1 107 0
 153 0084 0022     		movs	r2, #0
 154 0086 1146     		mov	r1, r2
 155 0088 4320     		movs	r0, #67
 156 008a FFF7FEFF 		bl	HAL_NVIC_SetPriority
 157              	.LVL7:
 108:Src/usbd_conf.c ****   /* USER CODE BEGIN USB_OTG_FS_MspInit 1 */
 158              		.loc 1 108 0
 159 008e 4320     		movs	r0, #67
 160 0090 FFF7FEFF 		bl	HAL_NVIC_EnableIRQ
 161              	.LVL8:
 113:Src/usbd_conf.c **** 
 162              		.loc 1 113 0
 163 0094 C0E7     		b	.L3
 164              	.L5:
 103:Src/usbd_conf.c ****     }
 165              		.loc 1 103 0
 166 0096 FFF7FEFF 		bl	HAL_PWREx_EnableVddUSB
 167              	.LVL9:
 168 009a F3E7     		b	.L6
 169              	.L10:
 170              		.align	2
 171              	.L9:
 172 009c 00100240 		.word	1073876992
 173              		.cfi_endproc
 174              	.LFE133:
 176              		.section	.text.HAL_PCD_MspDeInit,"ax",%progbits
 177              		.align	1
 178              		.global	HAL_PCD_MspDeInit
 179              		.syntax unified
 180              		.thumb
 181              		.thumb_func
 182              		.fpu fpv4-sp-d16
 184              	HAL_PCD_MspDeInit:
 185              	.LFB134:
 116:Src/usbd_conf.c ****   if(pcdHandle->Instance==USB_OTG_FS)
 186              		.loc 1 116 0
 187              		.cfi_startproc
 188              		@ args = 0, pretend = 0, frame = 8
 189              		@ frame_needed = 0, uses_anonymous_args = 0
 190              	.LVL10:
 117:Src/usbd_conf.c ****   {
 191              		.loc 1 117 0
 192 0000 0368     		ldr	r3, [r0]
 193 0002 B3F1A04F 		cmp	r3, #1342177280
 194 0006 00D0     		beq	.L19
 195 0008 7047     		bx	lr
 196              	.L19:
 116:Src/usbd_conf.c ****   if(pcdHandle->Instance==USB_OTG_FS)
ARM GAS  /var/folders/k_/d4dbklhx7q1fs9lh20k9kt840000gn/T//cciJk3fn.s 			page 20


 197              		.loc 1 116 0
 198 000a 10B5     		push	{r4, lr}
 199              	.LCFI5:
 200              		.cfi_def_cfa_offset 8
 201              		.cfi_offset 4, -8
 202              		.cfi_offset 14, -4
 203 000c 82B0     		sub	sp, sp, #8
 204              	.LCFI6:
 205              		.cfi_def_cfa_offset 16
 123:Src/usbd_conf.c ****   
 206              		.loc 1 123 0
 207 000e 134C     		ldr	r4, .L20
 208 0010 E36C     		ldr	r3, [r4, #76]
 209 0012 23F48053 		bic	r3, r3, #4096
 210 0016 E364     		str	r3, [r4, #76]
 129:Src/usbd_conf.c **** 
 211              		.loc 1 129 0
 212 0018 4FF4C051 		mov	r1, #6144
 213 001c 4FF09040 		mov	r0, #1207959552
 214              	.LVL11:
 215 0020 FFF7FEFF 		bl	HAL_GPIO_DeInit
 216              	.LVL12:
 132:Src/usbd_conf.c ****     {
 217              		.loc 1 132 0
 218 0024 A36D     		ldr	r3, [r4, #88]
 219 0026 13F0805F 		tst	r3, #268435456
 220 002a 13D1     		bne	.L13
 221              	.LBB5:
 134:Src/usbd_conf.c ****       HAL_PWREx_DisableVddUSB();
 222              		.loc 1 134 0
 223 002c A36D     		ldr	r3, [r4, #88]
 224 002e 43F08053 		orr	r3, r3, #268435456
 225 0032 A365     		str	r3, [r4, #88]
 226 0034 A36D     		ldr	r3, [r4, #88]
 227 0036 03F08053 		and	r3, r3, #268435456
 228 003a 0193     		str	r3, [sp, #4]
 229 003c 019B     		ldr	r3, [sp, #4]
 230              	.LBE5:
 135:Src/usbd_conf.c ****       __HAL_RCC_PWR_CLK_DISABLE();
 231              		.loc 1 135 0
 232 003e FFF7FEFF 		bl	HAL_PWREx_DisableVddUSB
 233              	.LVL13:
 136:Src/usbd_conf.c ****     }
 234              		.loc 1 136 0
 235 0042 A36D     		ldr	r3, [r4, #88]
 236 0044 23F08053 		bic	r3, r3, #268435456
 237 0048 A365     		str	r3, [r4, #88]
 238              	.L14:
 144:Src/usbd_conf.c **** 
 239              		.loc 1 144 0
 240 004a 4320     		movs	r0, #67
 241 004c FFF7FEFF 		bl	HAL_NVIC_DisableIRQ
 242              	.LVL14:
 150:Src/usbd_conf.c **** 
 243              		.loc 1 150 0
 244 0050 02B0     		add	sp, sp, #8
 245              	.LCFI7:
ARM GAS  /var/folders/k_/d4dbklhx7q1fs9lh20k9kt840000gn/T//cciJk3fn.s 			page 21


 246              		.cfi_remember_state
 247              		.cfi_def_cfa_offset 8
 248              		@ sp needed
 249 0052 10BD     		pop	{r4, pc}
 250              	.L13:
 251              	.LCFI8:
 252              		.cfi_restore_state
 140:Src/usbd_conf.c ****     }
 253              		.loc 1 140 0
 254 0054 FFF7FEFF 		bl	HAL_PWREx_DisableVddUSB
 255              	.LVL15:
 256 0058 F7E7     		b	.L14
 257              	.L21:
 258 005a 00BF     		.align	2
 259              	.L20:
 260 005c 00100240 		.word	1073876992
 261              		.cfi_endproc
 262              	.LFE134:
 264              		.section	.text.HAL_PCD_SetupStageCallback,"ax",%progbits
 265              		.align	1
 266              		.global	HAL_PCD_SetupStageCallback
 267              		.syntax unified
 268              		.thumb
 269              		.thumb_func
 270              		.fpu fpv4-sp-d16
 272              	HAL_PCD_SetupStageCallback:
 273              	.LFB135:
 162:Src/usbd_conf.c ****   USBD_LL_SetupStage((USBD_HandleTypeDef*)hpcd->pData, (uint8_t *)hpcd->Setup);
 274              		.loc 1 162 0
 275              		.cfi_startproc
 276              		@ args = 0, pretend = 0, frame = 0
 277              		@ frame_needed = 0, uses_anonymous_args = 0
 278              	.LVL16:
 279 0000 08B5     		push	{r3, lr}
 280              	.LCFI9:
 281              		.cfi_def_cfa_offset 8
 282              		.cfi_offset 3, -8
 283              		.cfi_offset 14, -4
 163:Src/usbd_conf.c **** }
 284              		.loc 1 163 0
 285 0002 00F57171 		add	r1, r0, #964
 286 0006 D0F80404 		ldr	r0, [r0, #1028]
 287              	.LVL17:
 288 000a FFF7FEFF 		bl	USBD_LL_SetupStage
 289              	.LVL18:
 164:Src/usbd_conf.c **** 
 290              		.loc 1 164 0
 291 000e 08BD     		pop	{r3, pc}
 292              		.cfi_endproc
 293              	.LFE135:
 295              		.section	.text.HAL_PCD_DataOutStageCallback,"ax",%progbits
 296              		.align	1
 297              		.global	HAL_PCD_DataOutStageCallback
 298              		.syntax unified
 299              		.thumb
 300              		.thumb_func
 301              		.fpu fpv4-sp-d16
ARM GAS  /var/folders/k_/d4dbklhx7q1fs9lh20k9kt840000gn/T//cciJk3fn.s 			page 22


 303              	HAL_PCD_DataOutStageCallback:
 304              	.LFB136:
 177:Src/usbd_conf.c ****   USBD_LL_DataOutStage((USBD_HandleTypeDef*)hpcd->pData, epnum, hpcd->OUT_ep[epnum].xfer_buff);
 305              		.loc 1 177 0
 306              		.cfi_startproc
 307              		@ args = 0, pretend = 0, frame = 0
 308              		@ frame_needed = 0, uses_anonymous_args = 0
 309              	.LVL19:
 310 0000 08B5     		push	{r3, lr}
 311              	.LCFI10:
 312              		.cfi_def_cfa_offset 8
 313              		.cfi_offset 3, -8
 314              		.cfi_offset 14, -4
 178:Src/usbd_conf.c **** }
 315              		.loc 1 178 0
 316 0002 C1EBC102 		rsb	r2, r1, r1, lsl #3
 317 0006 9300     		lsls	r3, r2, #2
 318 0008 0344     		add	r3, r3, r0
 319 000a D3F80822 		ldr	r2, [r3, #520]
 320 000e D0F80404 		ldr	r0, [r0, #1028]
 321              	.LVL20:
 322 0012 FFF7FEFF 		bl	USBD_LL_DataOutStage
 323              	.LVL21:
 179:Src/usbd_conf.c **** 
 324              		.loc 1 179 0
 325 0016 08BD     		pop	{r3, pc}
 326              		.cfi_endproc
 327              	.LFE136:
 329              		.section	.text.HAL_PCD_DataInStageCallback,"ax",%progbits
 330              		.align	1
 331              		.global	HAL_PCD_DataInStageCallback
 332              		.syntax unified
 333              		.thumb
 334              		.thumb_func
 335              		.fpu fpv4-sp-d16
 337              	HAL_PCD_DataInStageCallback:
 338              	.LFB137:
 192:Src/usbd_conf.c ****   USBD_LL_DataInStage((USBD_HandleTypeDef*)hpcd->pData, epnum, hpcd->IN_ep[epnum].xfer_buff);
 339              		.loc 1 192 0
 340              		.cfi_startproc
 341              		@ args = 0, pretend = 0, frame = 0
 342              		@ frame_needed = 0, uses_anonymous_args = 0
 343              	.LVL22:
 344 0000 08B5     		push	{r3, lr}
 345              	.LCFI11:
 346              		.cfi_def_cfa_offset 8
 347              		.cfi_offset 3, -8
 348              		.cfi_offset 14, -4
 193:Src/usbd_conf.c **** }
 349              		.loc 1 193 0
 350 0002 C1EBC102 		rsb	r2, r1, r1, lsl #3
 351 0006 9300     		lsls	r3, r2, #2
 352 0008 0344     		add	r3, r3, r0
 353 000a 9A6C     		ldr	r2, [r3, #72]
 354 000c D0F80404 		ldr	r0, [r0, #1028]
 355              	.LVL23:
 356 0010 FFF7FEFF 		bl	USBD_LL_DataInStage
ARM GAS  /var/folders/k_/d4dbklhx7q1fs9lh20k9kt840000gn/T//cciJk3fn.s 			page 23


 357              	.LVL24:
 194:Src/usbd_conf.c **** 
 358              		.loc 1 194 0
 359 0014 08BD     		pop	{r3, pc}
 360              		.cfi_endproc
 361              	.LFE137:
 363              		.section	.text.HAL_PCD_SOFCallback,"ax",%progbits
 364              		.align	1
 365              		.global	HAL_PCD_SOFCallback
 366              		.syntax unified
 367              		.thumb
 368              		.thumb_func
 369              		.fpu fpv4-sp-d16
 371              	HAL_PCD_SOFCallback:
 372              	.LFB138:
 206:Src/usbd_conf.c ****   USBD_LL_SOF((USBD_HandleTypeDef*)hpcd->pData);
 373              		.loc 1 206 0
 374              		.cfi_startproc
 375              		@ args = 0, pretend = 0, frame = 0
 376              		@ frame_needed = 0, uses_anonymous_args = 0
 377              	.LVL25:
 378 0000 08B5     		push	{r3, lr}
 379              	.LCFI12:
 380              		.cfi_def_cfa_offset 8
 381              		.cfi_offset 3, -8
 382              		.cfi_offset 14, -4
 207:Src/usbd_conf.c **** }
 383              		.loc 1 207 0
 384 0002 D0F80404 		ldr	r0, [r0, #1028]
 385              	.LVL26:
 386 0006 FFF7FEFF 		bl	USBD_LL_SOF
 387              	.LVL27:
 208:Src/usbd_conf.c **** 
 388              		.loc 1 208 0
 389 000a 08BD     		pop	{r3, pc}
 390              		.cfi_endproc
 391              	.LFE138:
 393              		.section	.text.HAL_PCD_ResetCallback,"ax",%progbits
 394              		.align	1
 395              		.global	HAL_PCD_ResetCallback
 396              		.syntax unified
 397              		.thumb
 398              		.thumb_func
 399              		.fpu fpv4-sp-d16
 401              	HAL_PCD_ResetCallback:
 402              	.LFB139:
 220:Src/usbd_conf.c ****   USBD_SpeedTypeDef speed = USBD_SPEED_FULL;
 403              		.loc 1 220 0
 404              		.cfi_startproc
 405              		@ args = 0, pretend = 0, frame = 0
 406              		@ frame_needed = 0, uses_anonymous_args = 0
 407              	.LVL28:
 408 0000 10B5     		push	{r4, lr}
 409              	.LCFI13:
 410              		.cfi_def_cfa_offset 8
 411              		.cfi_offset 4, -8
 412              		.cfi_offset 14, -4
ARM GAS  /var/folders/k_/d4dbklhx7q1fs9lh20k9kt840000gn/T//cciJk3fn.s 			page 24


 413 0002 0446     		mov	r4, r0
 414              	.LVL29:
 223:Src/usbd_conf.c ****   {
 415              		.loc 1 223 0
 416 0004 C368     		ldr	r3, [r0, #12]
 417 0006 022B     		cmp	r3, #2
 418 0008 01D0     		beq	.L31
 225:Src/usbd_conf.c ****   }
 419              		.loc 1 225 0
 420 000a FFF7FEFF 		bl	Error_Handler
 421              	.LVL30:
 422              	.L31:
 228:Src/usbd_conf.c **** 
 423              		.loc 1 228 0
 424 000e 0121     		movs	r1, #1
 425 0010 D4F80404 		ldr	r0, [r4, #1028]
 426 0014 FFF7FEFF 		bl	USBD_LL_SetSpeed
 427              	.LVL31:
 231:Src/usbd_conf.c **** }
 428              		.loc 1 231 0
 429 0018 D4F80404 		ldr	r0, [r4, #1028]
 430 001c FFF7FEFF 		bl	USBD_LL_Reset
 431              	.LVL32:
 232:Src/usbd_conf.c **** 
 432              		.loc 1 232 0
 433 0020 10BD     		pop	{r4, pc}
 434              		.cfi_endproc
 435              	.LFE139:
 437              		.section	.text.HAL_PCD_SuspendCallback,"ax",%progbits
 438              		.align	1
 439              		.global	HAL_PCD_SuspendCallback
 440              		.syntax unified
 441              		.thumb
 442              		.thumb_func
 443              		.fpu fpv4-sp-d16
 445              	HAL_PCD_SuspendCallback:
 446              	.LFB140:
 245:Src/usbd_conf.c ****   __HAL_PCD_GATE_PHYCLOCK(hpcd);
 447              		.loc 1 245 0
 448              		.cfi_startproc
 449              		@ args = 0, pretend = 0, frame = 0
 450              		@ frame_needed = 0, uses_anonymous_args = 0
 451              	.LVL33:
 452 0000 10B5     		push	{r4, lr}
 453              	.LCFI14:
 454              		.cfi_def_cfa_offset 8
 455              		.cfi_offset 4, -8
 456              		.cfi_offset 14, -4
 457 0002 0446     		mov	r4, r0
 246:Src/usbd_conf.c ****   /* Inform USB library that core enters in suspend Mode. */
 458              		.loc 1 246 0
 459 0004 0268     		ldr	r2, [r0]
 460 0006 D2F8003E 		ldr	r3, [r2, #3584]
 461 000a 43F00103 		orr	r3, r3, #1
 462 000e C2F8003E 		str	r3, [r2, #3584]
 248:Src/usbd_conf.c ****   /* Enter in STOP mode. */
 463              		.loc 1 248 0
ARM GAS  /var/folders/k_/d4dbklhx7q1fs9lh20k9kt840000gn/T//cciJk3fn.s 			page 25


 464 0012 D0F80404 		ldr	r0, [r0, #1028]
 465              	.LVL34:
 466 0016 FFF7FEFF 		bl	USBD_LL_Suspend
 467              	.LVL35:
 251:Src/usbd_conf.c ****   {
 468              		.loc 1 251 0
 469 001a 236A     		ldr	r3, [r4, #32]
 470 001c 23B1     		cbz	r3, .L33
 254:Src/usbd_conf.c ****   }
 471              		.loc 1 254 0
 472 001e 034A     		ldr	r2, .L36
 473 0020 1369     		ldr	r3, [r2, #16]
 474 0022 43F00603 		orr	r3, r3, #6
 475 0026 1361     		str	r3, [r2, #16]
 476              	.L33:
 257:Src/usbd_conf.c **** 
 477              		.loc 1 257 0
 478 0028 10BD     		pop	{r4, pc}
 479              	.LVL36:
 480              	.L37:
 481 002a 00BF     		.align	2
 482              	.L36:
 483 002c 00ED00E0 		.word	-536810240
 484              		.cfi_endproc
 485              	.LFE140:
 487              		.section	.text.HAL_PCD_ResumeCallback,"ax",%progbits
 488              		.align	1
 489              		.global	HAL_PCD_ResumeCallback
 490              		.syntax unified
 491              		.thumb
 492              		.thumb_func
 493              		.fpu fpv4-sp-d16
 495              	HAL_PCD_ResumeCallback:
 496              	.LFB141:
 270:Src/usbd_conf.c ****   __HAL_PCD_UNGATE_PHYCLOCK(hpcd);
 497              		.loc 1 270 0
 498              		.cfi_startproc
 499              		@ args = 0, pretend = 0, frame = 0
 500              		@ frame_needed = 0, uses_anonymous_args = 0
 501              	.LVL37:
 502 0000 10B5     		push	{r4, lr}
 503              	.LCFI15:
 504              		.cfi_def_cfa_offset 8
 505              		.cfi_offset 4, -8
 506              		.cfi_offset 14, -4
 507 0002 0446     		mov	r4, r0
 271:Src/usbd_conf.c **** 
 508              		.loc 1 271 0
 509 0004 0268     		ldr	r2, [r0]
 510 0006 D2F8003E 		ldr	r3, [r2, #3584]
 511 000a 23F00103 		bic	r3, r3, #1
 512 000e C2F8003E 		str	r3, [r2, #3584]
 274:Src/usbd_conf.c ****   {
 513              		.loc 1 274 0
 514 0012 036A     		ldr	r3, [r0, #32]
 515 0014 23B9     		cbnz	r3, .L41
 516              	.LVL38:
ARM GAS  /var/folders/k_/d4dbklhx7q1fs9lh20k9kt840000gn/T//cciJk3fn.s 			page 26


 517              	.L39:
 281:Src/usbd_conf.c **** }
 518              		.loc 1 281 0
 519 0016 D4F80404 		ldr	r0, [r4, #1028]
 520 001a FFF7FEFF 		bl	USBD_LL_Resume
 521              	.LVL39:
 282:Src/usbd_conf.c **** 
 522              		.loc 1 282 0
 523 001e 10BD     		pop	{r4, pc}
 524              	.LVL40:
 525              	.L41:
 277:Src/usbd_conf.c ****     SystemClockConfig_Resume();
 526              		.loc 1 277 0
 527 0020 034A     		ldr	r2, .L42
 528 0022 1369     		ldr	r3, [r2, #16]
 529 0024 23F00603 		bic	r3, r3, #6
 530 0028 1361     		str	r3, [r2, #16]
 278:Src/usbd_conf.c ****   }
 531              		.loc 1 278 0
 532 002a FFF7FEFF 		bl	SystemClockConfig_Resume
 533              	.LVL41:
 534 002e F2E7     		b	.L39
 535              	.L43:
 536              		.align	2
 537              	.L42:
 538 0030 00ED00E0 		.word	-536810240
 539              		.cfi_endproc
 540              	.LFE141:
 542              		.section	.text.HAL_PCD_ISOOUTIncompleteCallback,"ax",%progbits
 543              		.align	1
 544              		.global	HAL_PCD_ISOOUTIncompleteCallback
 545              		.syntax unified
 546              		.thumb
 547              		.thumb_func
 548              		.fpu fpv4-sp-d16
 550              	HAL_PCD_ISOOUTIncompleteCallback:
 551              	.LFB142:
 295:Src/usbd_conf.c ****   USBD_LL_IsoOUTIncomplete((USBD_HandleTypeDef*)hpcd->pData, epnum);
 552              		.loc 1 295 0
 553              		.cfi_startproc
 554              		@ args = 0, pretend = 0, frame = 0
 555              		@ frame_needed = 0, uses_anonymous_args = 0
 556              	.LVL42:
 557 0000 08B5     		push	{r3, lr}
 558              	.LCFI16:
 559              		.cfi_def_cfa_offset 8
 560              		.cfi_offset 3, -8
 561              		.cfi_offset 14, -4
 296:Src/usbd_conf.c **** }
 562              		.loc 1 296 0
 563 0002 D0F80404 		ldr	r0, [r0, #1028]
 564              	.LVL43:
 565 0006 FFF7FEFF 		bl	USBD_LL_IsoOUTIncomplete
 566              	.LVL44:
 297:Src/usbd_conf.c **** 
 567              		.loc 1 297 0
 568 000a 08BD     		pop	{r3, pc}
ARM GAS  /var/folders/k_/d4dbklhx7q1fs9lh20k9kt840000gn/T//cciJk3fn.s 			page 27


 569              		.cfi_endproc
 570              	.LFE142:
 572              		.section	.text.HAL_PCD_ISOINIncompleteCallback,"ax",%progbits
 573              		.align	1
 574              		.global	HAL_PCD_ISOINIncompleteCallback
 575              		.syntax unified
 576              		.thumb
 577              		.thumb_func
 578              		.fpu fpv4-sp-d16
 580              	HAL_PCD_ISOINIncompleteCallback:
 581              	.LFB143:
 310:Src/usbd_conf.c ****   USBD_LL_IsoINIncomplete((USBD_HandleTypeDef*)hpcd->pData, epnum);
 582              		.loc 1 310 0
 583              		.cfi_startproc
 584              		@ args = 0, pretend = 0, frame = 0
 585              		@ frame_needed = 0, uses_anonymous_args = 0
 586              	.LVL45:
 587 0000 08B5     		push	{r3, lr}
 588              	.LCFI17:
 589              		.cfi_def_cfa_offset 8
 590              		.cfi_offset 3, -8
 591              		.cfi_offset 14, -4
 311:Src/usbd_conf.c **** }
 592              		.loc 1 311 0
 593 0002 D0F80404 		ldr	r0, [r0, #1028]
 594              	.LVL46:
 595 0006 FFF7FEFF 		bl	USBD_LL_IsoINIncomplete
 596              	.LVL47:
 312:Src/usbd_conf.c **** 
 597              		.loc 1 312 0
 598 000a 08BD     		pop	{r3, pc}
 599              		.cfi_endproc
 600              	.LFE143:
 602              		.section	.text.HAL_PCD_ConnectCallback,"ax",%progbits
 603              		.align	1
 604              		.global	HAL_PCD_ConnectCallback
 605              		.syntax unified
 606              		.thumb
 607              		.thumb_func
 608              		.fpu fpv4-sp-d16
 610              	HAL_PCD_ConnectCallback:
 611              	.LFB144:
 324:Src/usbd_conf.c ****   USBD_LL_DevConnected((USBD_HandleTypeDef*)hpcd->pData);
 612              		.loc 1 324 0
 613              		.cfi_startproc
 614              		@ args = 0, pretend = 0, frame = 0
 615              		@ frame_needed = 0, uses_anonymous_args = 0
 616              	.LVL48:
 617 0000 08B5     		push	{r3, lr}
 618              	.LCFI18:
 619              		.cfi_def_cfa_offset 8
 620              		.cfi_offset 3, -8
 621              		.cfi_offset 14, -4
 325:Src/usbd_conf.c **** }
 622              		.loc 1 325 0
 623 0002 D0F80404 		ldr	r0, [r0, #1028]
 624              	.LVL49:
ARM GAS  /var/folders/k_/d4dbklhx7q1fs9lh20k9kt840000gn/T//cciJk3fn.s 			page 28


 625 0006 FFF7FEFF 		bl	USBD_LL_DevConnected
 626              	.LVL50:
 326:Src/usbd_conf.c **** 
 627              		.loc 1 326 0
 628 000a 08BD     		pop	{r3, pc}
 629              		.cfi_endproc
 630              	.LFE144:
 632              		.section	.text.HAL_PCD_DisconnectCallback,"ax",%progbits
 633              		.align	1
 634              		.global	HAL_PCD_DisconnectCallback
 635              		.syntax unified
 636              		.thumb
 637              		.thumb_func
 638              		.fpu fpv4-sp-d16
 640              	HAL_PCD_DisconnectCallback:
 641              	.LFB145:
 338:Src/usbd_conf.c ****   USBD_LL_DevDisconnected((USBD_HandleTypeDef*)hpcd->pData);
 642              		.loc 1 338 0
 643              		.cfi_startproc
 644              		@ args = 0, pretend = 0, frame = 0
 645              		@ frame_needed = 0, uses_anonymous_args = 0
 646              	.LVL51:
 647 0000 08B5     		push	{r3, lr}
 648              	.LCFI19:
 649              		.cfi_def_cfa_offset 8
 650              		.cfi_offset 3, -8
 651              		.cfi_offset 14, -4
 339:Src/usbd_conf.c **** }
 652              		.loc 1 339 0
 653 0002 D0F80404 		ldr	r0, [r0, #1028]
 654              	.LVL52:
 655 0006 FFF7FEFF 		bl	USBD_LL_DevDisconnected
 656              	.LVL53:
 340:Src/usbd_conf.c **** 
 657              		.loc 1 340 0
 658 000a 08BD     		pop	{r3, pc}
 659              		.cfi_endproc
 660              	.LFE145:
 662              		.section	.text.USBD_LL_Init,"ax",%progbits
 663              		.align	1
 664              		.global	USBD_LL_Init
 665              		.syntax unified
 666              		.thumb
 667              		.thumb_func
 668              		.fpu fpv4-sp-d16
 670              	USBD_LL_Init:
 671              	.LFB146:
 352:Src/usbd_conf.c ****   /* Init USB Ip. */
 672              		.loc 1 352 0
 673              		.cfi_startproc
 674              		@ args = 0, pretend = 0, frame = 0
 675              		@ frame_needed = 0, uses_anonymous_args = 0
 676              	.LVL54:
 354:Src/usbd_conf.c ****   /* Enable USB power on Pwrctrl CR2 register. */
 677              		.loc 1 354 0
 678 0000 0378     		ldrb	r3, [r0]	@ zero_extendqisi2
 679 0002 0BB1     		cbz	r3, .L59
ARM GAS  /var/folders/k_/d4dbklhx7q1fs9lh20k9kt840000gn/T//cciJk3fn.s 			page 29


 395:Src/usbd_conf.c **** 
 680              		.loc 1 395 0
 681 0004 0020     		movs	r0, #0
 682              	.LVL55:
 683 0006 7047     		bx	lr
 684              	.LVL56:
 685              	.L59:
 352:Src/usbd_conf.c ****   /* Init USB Ip. */
 686              		.loc 1 352 0
 687 0008 10B5     		push	{r4, lr}
 688              	.LCFI20:
 689              		.cfi_def_cfa_offset 8
 690              		.cfi_offset 4, -8
 691              		.cfi_offset 14, -4
 692 000a 0346     		mov	r3, r0
 357:Src/usbd_conf.c ****   pdev->pData = &hpcd_USB_OTG_FS;
 693              		.loc 1 357 0
 694 000c 1548     		ldr	r0, .L61
 695              	.LVL57:
 696 000e C0F80434 		str	r3, [r0, #1028]
 358:Src/usbd_conf.c ****   
 697              		.loc 1 358 0
 698 0012 C3F8C002 		str	r0, [r3, #704]
 360:Src/usbd_conf.c ****   hpcd_USB_OTG_FS.Init.dev_endpoints = 6;
 699              		.loc 1 360 0
 700 0016 4FF0A043 		mov	r3, #1342177280
 701              	.LVL58:
 702 001a 0360     		str	r3, [r0]
 361:Src/usbd_conf.c ****   hpcd_USB_OTG_FS.Init.speed = PCD_SPEED_FULL;
 703              		.loc 1 361 0
 704 001c 0623     		movs	r3, #6
 705 001e 4360     		str	r3, [r0, #4]
 362:Src/usbd_conf.c ****   hpcd_USB_OTG_FS.Init.phy_itface = PCD_PHY_EMBEDDED;
 706              		.loc 1 362 0
 707 0020 0223     		movs	r3, #2
 708 0022 C360     		str	r3, [r0, #12]
 363:Src/usbd_conf.c ****   hpcd_USB_OTG_FS.Init.Sof_enable = DISABLE;
 709              		.loc 1 363 0
 710 0024 8361     		str	r3, [r0, #24]
 364:Src/usbd_conf.c ****   hpcd_USB_OTG_FS.Init.low_power_enable = DISABLE;
 711              		.loc 1 364 0
 712 0026 0023     		movs	r3, #0
 713 0028 C361     		str	r3, [r0, #28]
 365:Src/usbd_conf.c ****   hpcd_USB_OTG_FS.Init.lpm_enable = DISABLE;
 714              		.loc 1 365 0
 715 002a 0362     		str	r3, [r0, #32]
 366:Src/usbd_conf.c ****   hpcd_USB_OTG_FS.Init.battery_charging_enable = DISABLE;
 716              		.loc 1 366 0
 717 002c 4362     		str	r3, [r0, #36]
 367:Src/usbd_conf.c ****   hpcd_USB_OTG_FS.Init.use_dedicated_ep1 = DISABLE;
 718              		.loc 1 367 0
 719 002e 8362     		str	r3, [r0, #40]
 368:Src/usbd_conf.c ****   hpcd_USB_OTG_FS.Init.vbus_sensing_enable = DISABLE;
 720              		.loc 1 368 0
 721 0030 0363     		str	r3, [r0, #48]
 369:Src/usbd_conf.c ****   if (HAL_PCD_Init(&hpcd_USB_OTG_FS) != HAL_OK)
 722              		.loc 1 369 0
ARM GAS  /var/folders/k_/d4dbklhx7q1fs9lh20k9kt840000gn/T//cciJk3fn.s 			page 30


 723 0032 C362     		str	r3, [r0, #44]
 370:Src/usbd_conf.c ****   {
 724              		.loc 1 370 0
 725 0034 FFF7FEFF 		bl	HAL_PCD_Init
 726              	.LVL59:
 727 0038 80B9     		cbnz	r0, .L60
 728              	.L54:
 390:Src/usbd_conf.c ****   HAL_PCDEx_SetTxFiFo(&hpcd_USB_OTG_FS, 0, 0x40);
 729              		.loc 1 390 0
 730 003a 0A4C     		ldr	r4, .L61
 731 003c 8021     		movs	r1, #128
 732 003e 2046     		mov	r0, r4
 733 0040 FFF7FEFF 		bl	HAL_PCDEx_SetRxFiFo
 734              	.LVL60:
 391:Src/usbd_conf.c ****   HAL_PCDEx_SetTxFiFo(&hpcd_USB_OTG_FS, 1, 0x80);
 735              		.loc 1 391 0
 736 0044 4022     		movs	r2, #64
 737 0046 0021     		movs	r1, #0
 738 0048 2046     		mov	r0, r4
 739 004a FFF7FEFF 		bl	HAL_PCDEx_SetTxFiFo
 740              	.LVL61:
 392:Src/usbd_conf.c ****   }
 741              		.loc 1 392 0
 742 004e 8022     		movs	r2, #128
 743 0050 0121     		movs	r1, #1
 744 0052 2046     		mov	r0, r4
 745 0054 FFF7FEFF 		bl	HAL_PCDEx_SetTxFiFo
 746              	.LVL62:
 395:Src/usbd_conf.c **** 
 747              		.loc 1 395 0
 748 0058 0020     		movs	r0, #0
 749 005a 10BD     		pop	{r4, pc}
 750              	.L60:
 372:Src/usbd_conf.c ****   }
 751              		.loc 1 372 0
 752 005c FFF7FEFF 		bl	Error_Handler
 753              	.LVL63:
 754 0060 EBE7     		b	.L54
 755              	.L62:
 756 0062 00BF     		.align	2
 757              	.L61:
 758 0064 00000000 		.word	hpcd_USB_OTG_FS
 759              		.cfi_endproc
 760              	.LFE146:
 762              		.section	.text.USBD_LL_DeInit,"ax",%progbits
 763              		.align	1
 764              		.global	USBD_LL_DeInit
 765              		.syntax unified
 766              		.thumb
 767              		.thumb_func
 768              		.fpu fpv4-sp-d16
 770              	USBD_LL_DeInit:
 771              	.LFB147:
 403:Src/usbd_conf.c ****   HAL_StatusTypeDef hal_status = HAL_OK;
 772              		.loc 1 403 0
 773              		.cfi_startproc
 774              		@ args = 0, pretend = 0, frame = 0
ARM GAS  /var/folders/k_/d4dbklhx7q1fs9lh20k9kt840000gn/T//cciJk3fn.s 			page 31


 775              		@ frame_needed = 0, uses_anonymous_args = 0
 776              	.LVL64:
 777 0000 08B5     		push	{r3, lr}
 778              	.LCFI21:
 779              		.cfi_def_cfa_offset 8
 780              		.cfi_offset 3, -8
 781              		.cfi_offset 14, -4
 782              	.LVL65:
 407:Src/usbd_conf.c **** 
 783              		.loc 1 407 0
 784 0002 D0F8C002 		ldr	r0, [r0, #704]
 785              	.LVL66:
 786 0006 FFF7FEFF 		bl	HAL_PCD_DeInit
 787              	.LVL67:
 409:Src/usbd_conf.c ****     case HAL_OK :
 788              		.loc 1 409 0
 789 000a 18B1     		cbz	r0, .L65
 790 000c 0228     		cmp	r0, #2
 791 000e 03D0     		beq	.L66
 414:Src/usbd_conf.c ****     break;
 792              		.loc 1 414 0
 793 0010 0220     		movs	r0, #2
 794              	.LVL68:
 795              	.L64:
 427:Src/usbd_conf.c **** 
 796              		.loc 1 427 0
 797 0012 08BD     		pop	{r3, pc}
 798              	.LVL69:
 799              	.L65:
 411:Src/usbd_conf.c ****     break;
 800              		.loc 1 411 0
 801 0014 0020     		movs	r0, #0
 802              	.LVL70:
 803 0016 FCE7     		b	.L64
 804              	.LVL71:
 805              	.L66:
 417:Src/usbd_conf.c ****     break;
 806              		.loc 1 417 0
 807 0018 0120     		movs	r0, #1
 808              	.LVL72:
 418:Src/usbd_conf.c ****     case HAL_TIMEOUT :
 809              		.loc 1 418 0
 810 001a FAE7     		b	.L64
 811              		.cfi_endproc
 812              	.LFE147:
 814              		.section	.text.USBD_LL_Start,"ax",%progbits
 815              		.align	1
 816              		.global	USBD_LL_Start
 817              		.syntax unified
 818              		.thumb
 819              		.thumb_func
 820              		.fpu fpv4-sp-d16
 822              	USBD_LL_Start:
 823              	.LFB148:
 435:Src/usbd_conf.c ****   HAL_StatusTypeDef hal_status = HAL_OK;
 824              		.loc 1 435 0
 825              		.cfi_startproc
ARM GAS  /var/folders/k_/d4dbklhx7q1fs9lh20k9kt840000gn/T//cciJk3fn.s 			page 32


 826              		@ args = 0, pretend = 0, frame = 0
 827              		@ frame_needed = 0, uses_anonymous_args = 0
 828              	.LVL73:
 829 0000 08B5     		push	{r3, lr}
 830              	.LCFI22:
 831              		.cfi_def_cfa_offset 8
 832              		.cfi_offset 3, -8
 833              		.cfi_offset 14, -4
 834              	.LVL74:
 439:Src/usbd_conf.c ****      
 835              		.loc 1 439 0
 836 0002 D0F8C002 		ldr	r0, [r0, #704]
 837              	.LVL75:
 838 0006 FFF7FEFF 		bl	HAL_PCD_Start
 839              	.LVL76:
 441:Src/usbd_conf.c ****     case HAL_OK :
 840              		.loc 1 441 0
 841 000a 18B1     		cbz	r0, .L72
 842 000c 0228     		cmp	r0, #2
 843 000e 03D0     		beq	.L73
 446:Src/usbd_conf.c ****     break;
 844              		.loc 1 446 0
 845 0010 0220     		movs	r0, #2
 846              	.LVL77:
 847              	.L71:
 459:Src/usbd_conf.c **** 
 848              		.loc 1 459 0
 849 0012 08BD     		pop	{r3, pc}
 850              	.LVL78:
 851              	.L72:
 443:Src/usbd_conf.c ****     break;
 852              		.loc 1 443 0
 853 0014 0020     		movs	r0, #0
 854              	.LVL79:
 855 0016 FCE7     		b	.L71
 856              	.LVL80:
 857              	.L73:
 449:Src/usbd_conf.c ****     break;
 858              		.loc 1 449 0
 859 0018 0120     		movs	r0, #1
 860              	.LVL81:
 450:Src/usbd_conf.c ****     case HAL_TIMEOUT :
 861              		.loc 1 450 0
 862 001a FAE7     		b	.L71
 863              		.cfi_endproc
 864              	.LFE148:
 866              		.section	.text.USBD_LL_Stop,"ax",%progbits
 867              		.align	1
 868              		.global	USBD_LL_Stop
 869              		.syntax unified
 870              		.thumb
 871              		.thumb_func
 872              		.fpu fpv4-sp-d16
 874              	USBD_LL_Stop:
 875              	.LFB149:
 467:Src/usbd_conf.c ****   HAL_StatusTypeDef hal_status = HAL_OK;
 876              		.loc 1 467 0
ARM GAS  /var/folders/k_/d4dbklhx7q1fs9lh20k9kt840000gn/T//cciJk3fn.s 			page 33


 877              		.cfi_startproc
 878              		@ args = 0, pretend = 0, frame = 0
 879              		@ frame_needed = 0, uses_anonymous_args = 0
 880              	.LVL82:
 881 0000 08B5     		push	{r3, lr}
 882              	.LCFI23:
 883              		.cfi_def_cfa_offset 8
 884              		.cfi_offset 3, -8
 885              		.cfi_offset 14, -4
 886              	.LVL83:
 471:Src/usbd_conf.c **** 
 887              		.loc 1 471 0
 888 0002 D0F8C002 		ldr	r0, [r0, #704]
 889              	.LVL84:
 890 0006 FFF7FEFF 		bl	HAL_PCD_Stop
 891              	.LVL85:
 473:Src/usbd_conf.c ****     case HAL_OK :
 892              		.loc 1 473 0
 893 000a 18B1     		cbz	r0, .L79
 894 000c 0228     		cmp	r0, #2
 895 000e 03D0     		beq	.L80
 478:Src/usbd_conf.c ****     break;
 896              		.loc 1 478 0
 897 0010 0220     		movs	r0, #2
 898              	.LVL86:
 899              	.L78:
 491:Src/usbd_conf.c **** 
 900              		.loc 1 491 0
 901 0012 08BD     		pop	{r3, pc}
 902              	.LVL87:
 903              	.L79:
 475:Src/usbd_conf.c ****     break;
 904              		.loc 1 475 0
 905 0014 0020     		movs	r0, #0
 906              	.LVL88:
 907 0016 FCE7     		b	.L78
 908              	.LVL89:
 909              	.L80:
 481:Src/usbd_conf.c ****     break;
 910              		.loc 1 481 0
 911 0018 0120     		movs	r0, #1
 912              	.LVL90:
 482:Src/usbd_conf.c ****     case HAL_TIMEOUT :
 913              		.loc 1 482 0
 914 001a FAE7     		b	.L78
 915              		.cfi_endproc
 916              	.LFE149:
 918              		.section	.text.USBD_LL_OpenEP,"ax",%progbits
 919              		.align	1
 920              		.global	USBD_LL_OpenEP
 921              		.syntax unified
 922              		.thumb
 923              		.thumb_func
 924              		.fpu fpv4-sp-d16
 926              	USBD_LL_OpenEP:
 927              	.LFB150:
 502:Src/usbd_conf.c ****   HAL_StatusTypeDef hal_status = HAL_OK;
ARM GAS  /var/folders/k_/d4dbklhx7q1fs9lh20k9kt840000gn/T//cciJk3fn.s 			page 34


 928              		.loc 1 502 0
 929              		.cfi_startproc
 930              		@ args = 0, pretend = 0, frame = 0
 931              		@ frame_needed = 0, uses_anonymous_args = 0
 932              	.LVL91:
 933 0000 10B5     		push	{r4, lr}
 934              	.LCFI24:
 935              		.cfi_def_cfa_offset 8
 936              		.cfi_offset 4, -8
 937              		.cfi_offset 14, -4
 938 0002 1C46     		mov	r4, r3
 939              	.LVL92:
 506:Src/usbd_conf.c **** 
 940              		.loc 1 506 0
 941 0004 1346     		mov	r3, r2
 942              	.LVL93:
 943 0006 2246     		mov	r2, r4
 944              	.LVL94:
 945 0008 D0F8C002 		ldr	r0, [r0, #704]
 946              	.LVL95:
 947 000c FFF7FEFF 		bl	HAL_PCD_EP_Open
 948              	.LVL96:
 508:Src/usbd_conf.c ****     case HAL_OK :
 949              		.loc 1 508 0
 950 0010 18B1     		cbz	r0, .L86
 951 0012 0228     		cmp	r0, #2
 952 0014 03D0     		beq	.L87
 513:Src/usbd_conf.c ****     break;
 953              		.loc 1 513 0
 954 0016 0220     		movs	r0, #2
 955              	.LVL97:
 956              	.L85:
 526:Src/usbd_conf.c **** 
 957              		.loc 1 526 0
 958 0018 10BD     		pop	{r4, pc}
 959              	.LVL98:
 960              	.L86:
 510:Src/usbd_conf.c ****     break;
 961              		.loc 1 510 0
 962 001a 0020     		movs	r0, #0
 963              	.LVL99:
 964 001c FCE7     		b	.L85
 965              	.LVL100:
 966              	.L87:
 516:Src/usbd_conf.c ****     break;
 967              		.loc 1 516 0
 968 001e 0120     		movs	r0, #1
 969              	.LVL101:
 517:Src/usbd_conf.c ****     case HAL_TIMEOUT :
 970              		.loc 1 517 0
 971 0020 FAE7     		b	.L85
 972              		.cfi_endproc
 973              	.LFE150:
 975              		.section	.text.USBD_LL_CloseEP,"ax",%progbits
 976              		.align	1
 977              		.global	USBD_LL_CloseEP
 978              		.syntax unified
ARM GAS  /var/folders/k_/d4dbklhx7q1fs9lh20k9kt840000gn/T//cciJk3fn.s 			page 35


 979              		.thumb
 980              		.thumb_func
 981              		.fpu fpv4-sp-d16
 983              	USBD_LL_CloseEP:
 984              	.LFB151:
 535:Src/usbd_conf.c ****   HAL_StatusTypeDef hal_status = HAL_OK;
 985              		.loc 1 535 0
 986              		.cfi_startproc
 987              		@ args = 0, pretend = 0, frame = 0
 988              		@ frame_needed = 0, uses_anonymous_args = 0
 989              	.LVL102:
 990 0000 08B5     		push	{r3, lr}
 991              	.LCFI25:
 992              		.cfi_def_cfa_offset 8
 993              		.cfi_offset 3, -8
 994              		.cfi_offset 14, -4
 995              	.LVL103:
 539:Src/usbd_conf.c ****       
 996              		.loc 1 539 0
 997 0002 D0F8C002 		ldr	r0, [r0, #704]
 998              	.LVL104:
 999 0006 FFF7FEFF 		bl	HAL_PCD_EP_Close
 1000              	.LVL105:
 541:Src/usbd_conf.c ****     case HAL_OK :
 1001              		.loc 1 541 0
 1002 000a 18B1     		cbz	r0, .L93
 1003 000c 0228     		cmp	r0, #2
 1004 000e 03D0     		beq	.L94
 546:Src/usbd_conf.c ****     break;
 1005              		.loc 1 546 0
 1006 0010 0220     		movs	r0, #2
 1007              	.LVL106:
 1008              	.L92:
 559:Src/usbd_conf.c **** 
 1009              		.loc 1 559 0
 1010 0012 08BD     		pop	{r3, pc}
 1011              	.LVL107:
 1012              	.L93:
 543:Src/usbd_conf.c ****     break;
 1013              		.loc 1 543 0
 1014 0014 0020     		movs	r0, #0
 1015              	.LVL108:
 1016 0016 FCE7     		b	.L92
 1017              	.LVL109:
 1018              	.L94:
 549:Src/usbd_conf.c ****     break;
 1019              		.loc 1 549 0
 1020 0018 0120     		movs	r0, #1
 1021              	.LVL110:
 550:Src/usbd_conf.c ****     case HAL_TIMEOUT :
 1022              		.loc 1 550 0
 1023 001a FAE7     		b	.L92
 1024              		.cfi_endproc
 1025              	.LFE151:
 1027              		.section	.text.USBD_LL_FlushEP,"ax",%progbits
 1028              		.align	1
 1029              		.global	USBD_LL_FlushEP
ARM GAS  /var/folders/k_/d4dbklhx7q1fs9lh20k9kt840000gn/T//cciJk3fn.s 			page 36


 1030              		.syntax unified
 1031              		.thumb
 1032              		.thumb_func
 1033              		.fpu fpv4-sp-d16
 1035              	USBD_LL_FlushEP:
 1036              	.LFB152:
 568:Src/usbd_conf.c ****   HAL_StatusTypeDef hal_status = HAL_OK;
 1037              		.loc 1 568 0
 1038              		.cfi_startproc
 1039              		@ args = 0, pretend = 0, frame = 0
 1040              		@ frame_needed = 0, uses_anonymous_args = 0
 1041              	.LVL111:
 1042 0000 08B5     		push	{r3, lr}
 1043              	.LCFI26:
 1044              		.cfi_def_cfa_offset 8
 1045              		.cfi_offset 3, -8
 1046              		.cfi_offset 14, -4
 1047              	.LVL112:
 572:Src/usbd_conf.c ****       
 1048              		.loc 1 572 0
 1049 0002 D0F8C002 		ldr	r0, [r0, #704]
 1050              	.LVL113:
 1051 0006 FFF7FEFF 		bl	HAL_PCD_EP_Flush
 1052              	.LVL114:
 574:Src/usbd_conf.c ****     case HAL_OK :
 1053              		.loc 1 574 0
 1054 000a 18B1     		cbz	r0, .L100
 1055 000c 0228     		cmp	r0, #2
 1056 000e 03D0     		beq	.L101
 579:Src/usbd_conf.c ****     break;
 1057              		.loc 1 579 0
 1058 0010 0220     		movs	r0, #2
 1059              	.LVL115:
 1060              	.L99:
 592:Src/usbd_conf.c **** 
 1061              		.loc 1 592 0
 1062 0012 08BD     		pop	{r3, pc}
 1063              	.LVL116:
 1064              	.L100:
 576:Src/usbd_conf.c ****     break;
 1065              		.loc 1 576 0
 1066 0014 0020     		movs	r0, #0
 1067              	.LVL117:
 1068 0016 FCE7     		b	.L99
 1069              	.LVL118:
 1070              	.L101:
 582:Src/usbd_conf.c ****     break;
 1071              		.loc 1 582 0
 1072 0018 0120     		movs	r0, #1
 1073              	.LVL119:
 583:Src/usbd_conf.c ****     case HAL_TIMEOUT :
 1074              		.loc 1 583 0
 1075 001a FAE7     		b	.L99
 1076              		.cfi_endproc
 1077              	.LFE152:
 1079              		.section	.text.USBD_LL_StallEP,"ax",%progbits
 1080              		.align	1
ARM GAS  /var/folders/k_/d4dbklhx7q1fs9lh20k9kt840000gn/T//cciJk3fn.s 			page 37


 1081              		.global	USBD_LL_StallEP
 1082              		.syntax unified
 1083              		.thumb
 1084              		.thumb_func
 1085              		.fpu fpv4-sp-d16
 1087              	USBD_LL_StallEP:
 1088              	.LFB153:
 601:Src/usbd_conf.c ****   HAL_StatusTypeDef hal_status = HAL_OK;
 1089              		.loc 1 601 0
 1090              		.cfi_startproc
 1091              		@ args = 0, pretend = 0, frame = 0
 1092              		@ frame_needed = 0, uses_anonymous_args = 0
 1093              	.LVL120:
 1094 0000 08B5     		push	{r3, lr}
 1095              	.LCFI27:
 1096              		.cfi_def_cfa_offset 8
 1097              		.cfi_offset 3, -8
 1098              		.cfi_offset 14, -4
 1099              	.LVL121:
 605:Src/usbd_conf.c **** 
 1100              		.loc 1 605 0
 1101 0002 D0F8C002 		ldr	r0, [r0, #704]
 1102              	.LVL122:
 1103 0006 FFF7FEFF 		bl	HAL_PCD_EP_SetStall
 1104              	.LVL123:
 607:Src/usbd_conf.c ****     case HAL_OK :
 1105              		.loc 1 607 0
 1106 000a 18B1     		cbz	r0, .L107
 1107 000c 0228     		cmp	r0, #2
 1108 000e 03D0     		beq	.L108
 612:Src/usbd_conf.c ****     break;
 1109              		.loc 1 612 0
 1110 0010 0220     		movs	r0, #2
 1111              	.LVL124:
 1112              	.L106:
 625:Src/usbd_conf.c **** 
 1113              		.loc 1 625 0
 1114 0012 08BD     		pop	{r3, pc}
 1115              	.LVL125:
 1116              	.L107:
 609:Src/usbd_conf.c ****     break;
 1117              		.loc 1 609 0
 1118 0014 0020     		movs	r0, #0
 1119              	.LVL126:
 1120 0016 FCE7     		b	.L106
 1121              	.LVL127:
 1122              	.L108:
 615:Src/usbd_conf.c ****     break;
 1123              		.loc 1 615 0
 1124 0018 0120     		movs	r0, #1
 1125              	.LVL128:
 616:Src/usbd_conf.c ****     case HAL_TIMEOUT :
 1126              		.loc 1 616 0
 1127 001a FAE7     		b	.L106
 1128              		.cfi_endproc
 1129              	.LFE153:
 1131              		.section	.text.USBD_LL_ClearStallEP,"ax",%progbits
ARM GAS  /var/folders/k_/d4dbklhx7q1fs9lh20k9kt840000gn/T//cciJk3fn.s 			page 38


 1132              		.align	1
 1133              		.global	USBD_LL_ClearStallEP
 1134              		.syntax unified
 1135              		.thumb
 1136              		.thumb_func
 1137              		.fpu fpv4-sp-d16
 1139              	USBD_LL_ClearStallEP:
 1140              	.LFB154:
 634:Src/usbd_conf.c ****   HAL_StatusTypeDef hal_status = HAL_OK;
 1141              		.loc 1 634 0
 1142              		.cfi_startproc
 1143              		@ args = 0, pretend = 0, frame = 0
 1144              		@ frame_needed = 0, uses_anonymous_args = 0
 1145              	.LVL129:
 1146 0000 08B5     		push	{r3, lr}
 1147              	.LCFI28:
 1148              		.cfi_def_cfa_offset 8
 1149              		.cfi_offset 3, -8
 1150              		.cfi_offset 14, -4
 1151              	.LVL130:
 638:Src/usbd_conf.c ****      
 1152              		.loc 1 638 0
 1153 0002 D0F8C002 		ldr	r0, [r0, #704]
 1154              	.LVL131:
 1155 0006 FFF7FEFF 		bl	HAL_PCD_EP_ClrStall
 1156              	.LVL132:
 640:Src/usbd_conf.c ****     case HAL_OK :
 1157              		.loc 1 640 0
 1158 000a 18B1     		cbz	r0, .L114
 1159 000c 0228     		cmp	r0, #2
 1160 000e 03D0     		beq	.L115
 645:Src/usbd_conf.c ****     break;
 1161              		.loc 1 645 0
 1162 0010 0220     		movs	r0, #2
 1163              	.LVL133:
 1164              	.L113:
 658:Src/usbd_conf.c **** 
 1165              		.loc 1 658 0
 1166 0012 08BD     		pop	{r3, pc}
 1167              	.LVL134:
 1168              	.L114:
 642:Src/usbd_conf.c ****     break;
 1169              		.loc 1 642 0
 1170 0014 0020     		movs	r0, #0
 1171              	.LVL135:
 1172 0016 FCE7     		b	.L113
 1173              	.LVL136:
 1174              	.L115:
 648:Src/usbd_conf.c ****     break;
 1175              		.loc 1 648 0
 1176 0018 0120     		movs	r0, #1
 1177              	.LVL137:
 649:Src/usbd_conf.c ****     case HAL_TIMEOUT :
 1178              		.loc 1 649 0
 1179 001a FAE7     		b	.L113
 1180              		.cfi_endproc
 1181              	.LFE154:
ARM GAS  /var/folders/k_/d4dbklhx7q1fs9lh20k9kt840000gn/T//cciJk3fn.s 			page 39


 1183              		.section	.text.USBD_LL_IsStallEP,"ax",%progbits
 1184              		.align	1
 1185              		.global	USBD_LL_IsStallEP
 1186              		.syntax unified
 1187              		.thumb
 1188              		.thumb_func
 1189              		.fpu fpv4-sp-d16
 1191              	USBD_LL_IsStallEP:
 1192              	.LFB155:
 667:Src/usbd_conf.c ****   PCD_HandleTypeDef *hpcd = (PCD_HandleTypeDef*) pdev->pData;
 1193              		.loc 1 667 0
 1194              		.cfi_startproc
 1195              		@ args = 0, pretend = 0, frame = 0
 1196              		@ frame_needed = 0, uses_anonymous_args = 0
 1197              		@ link register save eliminated.
 1198              	.LVL138:
 668:Src/usbd_conf.c ****   
 1199              		.loc 1 668 0
 1200 0000 D0F8C032 		ldr	r3, [r0, #704]
 1201              	.LVL139:
 670:Src/usbd_conf.c ****   {
 1202              		.loc 1 670 0
 1203 0004 11F0800F 		tst	r1, #128
 1204 0008 08D1     		bne	.L122
 676:Src/usbd_conf.c ****   }
 1205              		.loc 1 676 0
 1206 000a 01F07F01 		and	r1, r1, #127
 1207              	.LVL140:
 1208 000e C1EBC101 		rsb	r1, r1, r1, lsl #3
 1209 0012 8A00     		lsls	r2, r1, #2
 1210 0014 1344     		add	r3, r3, r2
 1211              	.LVL141:
 1212 0016 93F8FE01 		ldrb	r0, [r3, #510]	@ zero_extendqisi2
 1213              	.LVL142:
 678:Src/usbd_conf.c **** 
 1214              		.loc 1 678 0
 1215 001a 7047     		bx	lr
 1216              	.LVL143:
 1217              	.L122:
 672:Src/usbd_conf.c ****   }
 1218              		.loc 1 672 0
 1219 001c 01F07F01 		and	r1, r1, #127
 1220              	.LVL144:
 1221 0020 C1EBC101 		rsb	r1, r1, r1, lsl #3
 1222 0024 8A00     		lsls	r2, r1, #2
 1223 0026 1344     		add	r3, r3, r2
 1224              	.LVL145:
 1225 0028 93F83E00 		ldrb	r0, [r3, #62]	@ zero_extendqisi2
 1226              	.LVL146:
 1227 002c 7047     		bx	lr
 1228              		.cfi_endproc
 1229              	.LFE155:
 1231              		.section	.text.USBD_LL_SetUSBAddress,"ax",%progbits
 1232              		.align	1
 1233              		.global	USBD_LL_SetUSBAddress
 1234              		.syntax unified
 1235              		.thumb
ARM GAS  /var/folders/k_/d4dbklhx7q1fs9lh20k9kt840000gn/T//cciJk3fn.s 			page 40


 1236              		.thumb_func
 1237              		.fpu fpv4-sp-d16
 1239              	USBD_LL_SetUSBAddress:
 1240              	.LFB156:
 687:Src/usbd_conf.c ****   HAL_StatusTypeDef hal_status = HAL_OK;
 1241              		.loc 1 687 0
 1242              		.cfi_startproc
 1243              		@ args = 0, pretend = 0, frame = 0
 1244              		@ frame_needed = 0, uses_anonymous_args = 0
 1245              	.LVL147:
 1246 0000 08B5     		push	{r3, lr}
 1247              	.LCFI29:
 1248              		.cfi_def_cfa_offset 8
 1249              		.cfi_offset 3, -8
 1250              		.cfi_offset 14, -4
 1251              	.LVL148:
 691:Src/usbd_conf.c ****      
 1252              		.loc 1 691 0
 1253 0002 D0F8C002 		ldr	r0, [r0, #704]
 1254              	.LVL149:
 1255 0006 FFF7FEFF 		bl	HAL_PCD_SetAddress
 1256              	.LVL150:
 693:Src/usbd_conf.c ****     case HAL_OK :
 1257              		.loc 1 693 0
 1258 000a 18B1     		cbz	r0, .L125
 1259 000c 0228     		cmp	r0, #2
 1260 000e 03D0     		beq	.L126
 698:Src/usbd_conf.c ****     break;
 1261              		.loc 1 698 0
 1262 0010 0220     		movs	r0, #2
 1263              	.LVL151:
 1264              	.L124:
 711:Src/usbd_conf.c **** 
 1265              		.loc 1 711 0
 1266 0012 08BD     		pop	{r3, pc}
 1267              	.LVL152:
 1268              	.L125:
 695:Src/usbd_conf.c ****     break;
 1269              		.loc 1 695 0
 1270 0014 0020     		movs	r0, #0
 1271              	.LVL153:
 1272 0016 FCE7     		b	.L124
 1273              	.LVL154:
 1274              	.L126:
 701:Src/usbd_conf.c ****     break;
 1275              		.loc 1 701 0
 1276 0018 0120     		movs	r0, #1
 1277              	.LVL155:
 702:Src/usbd_conf.c ****     case HAL_TIMEOUT :
 1278              		.loc 1 702 0
 1279 001a FAE7     		b	.L124
 1280              		.cfi_endproc
 1281              	.LFE156:
 1283              		.section	.text.USBD_LL_Transmit,"ax",%progbits
 1284              		.align	1
 1285              		.global	USBD_LL_Transmit
 1286              		.syntax unified
ARM GAS  /var/folders/k_/d4dbklhx7q1fs9lh20k9kt840000gn/T//cciJk3fn.s 			page 41


 1287              		.thumb
 1288              		.thumb_func
 1289              		.fpu fpv4-sp-d16
 1291              	USBD_LL_Transmit:
 1292              	.LFB157:
 722:Src/usbd_conf.c ****   HAL_StatusTypeDef hal_status = HAL_OK;
 1293              		.loc 1 722 0
 1294              		.cfi_startproc
 1295              		@ args = 0, pretend = 0, frame = 0
 1296              		@ frame_needed = 0, uses_anonymous_args = 0
 1297              	.LVL156:
 1298 0000 08B5     		push	{r3, lr}
 1299              	.LCFI30:
 1300              		.cfi_def_cfa_offset 8
 1301              		.cfi_offset 3, -8
 1302              		.cfi_offset 14, -4
 1303              	.LVL157:
 726:Src/usbd_conf.c ****      
 1304              		.loc 1 726 0
 1305 0002 D0F8C002 		ldr	r0, [r0, #704]
 1306              	.LVL158:
 1307 0006 FFF7FEFF 		bl	HAL_PCD_EP_Transmit
 1308              	.LVL159:
 728:Src/usbd_conf.c ****     case HAL_OK :
 1309              		.loc 1 728 0
 1310 000a 18B1     		cbz	r0, .L132
 1311 000c 0228     		cmp	r0, #2
 1312 000e 03D0     		beq	.L133
 733:Src/usbd_conf.c ****     break;
 1313              		.loc 1 733 0
 1314 0010 0220     		movs	r0, #2
 1315              	.LVL160:
 1316              	.L131:
 746:Src/usbd_conf.c **** 
 1317              		.loc 1 746 0
 1318 0012 08BD     		pop	{r3, pc}
 1319              	.LVL161:
 1320              	.L132:
 730:Src/usbd_conf.c ****     break;
 1321              		.loc 1 730 0
 1322 0014 0020     		movs	r0, #0
 1323              	.LVL162:
 1324 0016 FCE7     		b	.L131
 1325              	.LVL163:
 1326              	.L133:
 736:Src/usbd_conf.c ****     break;
 1327              		.loc 1 736 0
 1328 0018 0120     		movs	r0, #1
 1329              	.LVL164:
 737:Src/usbd_conf.c ****     case HAL_TIMEOUT :
 1330              		.loc 1 737 0
 1331 001a FAE7     		b	.L131
 1332              		.cfi_endproc
 1333              	.LFE157:
 1335              		.section	.text.USBD_LL_PrepareReceive,"ax",%progbits
 1336              		.align	1
 1337              		.global	USBD_LL_PrepareReceive
ARM GAS  /var/folders/k_/d4dbklhx7q1fs9lh20k9kt840000gn/T//cciJk3fn.s 			page 42


 1338              		.syntax unified
 1339              		.thumb
 1340              		.thumb_func
 1341              		.fpu fpv4-sp-d16
 1343              	USBD_LL_PrepareReceive:
 1344              	.LFB158:
 757:Src/usbd_conf.c ****   HAL_StatusTypeDef hal_status = HAL_OK;
 1345              		.loc 1 757 0
 1346              		.cfi_startproc
 1347              		@ args = 0, pretend = 0, frame = 0
 1348              		@ frame_needed = 0, uses_anonymous_args = 0
 1349              	.LVL165:
 1350 0000 08B5     		push	{r3, lr}
 1351              	.LCFI31:
 1352              		.cfi_def_cfa_offset 8
 1353              		.cfi_offset 3, -8
 1354              		.cfi_offset 14, -4
 1355              	.LVL166:
 761:Src/usbd_conf.c ****      
 1356              		.loc 1 761 0
 1357 0002 D0F8C002 		ldr	r0, [r0, #704]
 1358              	.LVL167:
 1359 0006 FFF7FEFF 		bl	HAL_PCD_EP_Receive
 1360              	.LVL168:
 763:Src/usbd_conf.c ****     case HAL_OK :
 1361              		.loc 1 763 0
 1362 000a 18B1     		cbz	r0, .L139
 1363 000c 0228     		cmp	r0, #2
 1364 000e 03D0     		beq	.L140
 768:Src/usbd_conf.c ****     break;
 1365              		.loc 1 768 0
 1366 0010 0220     		movs	r0, #2
 1367              	.LVL169:
 1368              	.L138:
 781:Src/usbd_conf.c **** 
 1369              		.loc 1 781 0
 1370 0012 08BD     		pop	{r3, pc}
 1371              	.LVL170:
 1372              	.L139:
 765:Src/usbd_conf.c ****     break;
 1373              		.loc 1 765 0
 1374 0014 0020     		movs	r0, #0
 1375              	.LVL171:
 1376 0016 FCE7     		b	.L138
 1377              	.LVL172:
 1378              	.L140:
 771:Src/usbd_conf.c ****     break;
 1379              		.loc 1 771 0
 1380 0018 0120     		movs	r0, #1
 1381              	.LVL173:
 772:Src/usbd_conf.c ****     case HAL_TIMEOUT :
 1382              		.loc 1 772 0
 1383 001a FAE7     		b	.L138
 1384              		.cfi_endproc
 1385              	.LFE158:
 1387              		.section	.text.USBD_LL_GetRxDataSize,"ax",%progbits
 1388              		.align	1
ARM GAS  /var/folders/k_/d4dbklhx7q1fs9lh20k9kt840000gn/T//cciJk3fn.s 			page 43


 1389              		.global	USBD_LL_GetRxDataSize
 1390              		.syntax unified
 1391              		.thumb
 1392              		.thumb_func
 1393              		.fpu fpv4-sp-d16
 1395              	USBD_LL_GetRxDataSize:
 1396              	.LFB159:
 790:Src/usbd_conf.c ****   return HAL_PCD_EP_GetRxCount((PCD_HandleTypeDef*) pdev->pData, ep_addr);
 1397              		.loc 1 790 0
 1398              		.cfi_startproc
 1399              		@ args = 0, pretend = 0, frame = 0
 1400              		@ frame_needed = 0, uses_anonymous_args = 0
 1401              	.LVL174:
 1402 0000 08B5     		push	{r3, lr}
 1403              	.LCFI32:
 1404              		.cfi_def_cfa_offset 8
 1405              		.cfi_offset 3, -8
 1406              		.cfi_offset 14, -4
 791:Src/usbd_conf.c **** }
 1407              		.loc 1 791 0
 1408 0002 D0F8C002 		ldr	r0, [r0, #704]
 1409              	.LVL175:
 1410 0006 FFF7FEFF 		bl	HAL_PCD_EP_GetRxCount
 1411              	.LVL176:
 792:Src/usbd_conf.c **** 
 1412              		.loc 1 792 0
 1413 000a 08BD     		pop	{r3, pc}
 1414              		.cfi_endproc
 1415              	.LFE159:
 1417              		.section	.text.HAL_PCDEx_LPM_Callback,"ax",%progbits
 1418              		.align	1
 1419              		.global	HAL_PCDEx_LPM_Callback
 1420              		.syntax unified
 1421              		.thumb
 1422              		.thumb_func
 1423              		.fpu fpv4-sp-d16
 1425              	HAL_PCDEx_LPM_Callback:
 1426              	.LFB160:
 801:Src/usbd_conf.c ****   switch (msg)
 1427              		.loc 1 801 0
 1428              		.cfi_startproc
 1429              		@ args = 0, pretend = 0, frame = 0
 1430              		@ frame_needed = 0, uses_anonymous_args = 0
 1431              	.LVL177:
 1432 0000 10B5     		push	{r4, lr}
 1433              	.LCFI33:
 1434              		.cfi_def_cfa_offset 8
 1435              		.cfi_offset 4, -8
 1436              		.cfi_offset 14, -4
 1437 0002 0446     		mov	r4, r0
 802:Src/usbd_conf.c ****   {
 1438              		.loc 1 802 0
 1439 0004 11B1     		cbz	r1, .L148
 1440 0006 0129     		cmp	r1, #1
 1441 0008 16D0     		beq	.L149
 1442              	.LVL178:
 1443              	.L146:
ARM GAS  /var/folders/k_/d4dbklhx7q1fs9lh20k9kt840000gn/T//cciJk3fn.s 			page 44


 828:Src/usbd_conf.c **** 
 1444              		.loc 1 828 0
 1445 000a 10BD     		pop	{r4, pc}
 1446              	.LVL179:
 1447              	.L148:
 805:Src/usbd_conf.c ****     {
 1448              		.loc 1 805 0
 1449 000c 036A     		ldr	r3, [r0, #32]
 1450 000e 5BB9     		cbnz	r3, .L152
 1451              	.LVL180:
 1452              	.L150:
 812:Src/usbd_conf.c ****     USBD_LL_Resume(hpcd->pData);
 1453              		.loc 1 812 0
 1454 0010 2268     		ldr	r2, [r4]
 1455 0012 D2F8003E 		ldr	r3, [r2, #3584]
 1456 0016 23F00103 		bic	r3, r3, #1
 1457 001a C2F8003E 		str	r3, [r2, #3584]
 813:Src/usbd_conf.c ****     break;
 1458              		.loc 1 813 0
 1459 001e D4F80404 		ldr	r0, [r4, #1028]
 1460 0022 FFF7FEFF 		bl	USBD_LL_Resume
 1461              	.LVL181:
 814:Src/usbd_conf.c ****     
 1462              		.loc 1 814 0
 1463 0026 F0E7     		b	.L146
 1464              	.LVL182:
 1465              	.L152:
 807:Src/usbd_conf.c ****       
 1466              		.loc 1 807 0
 1467 0028 FFF7FEFF 		bl	SystemClockConfig_Resume
 1468              	.LVL183:
 810:Src/usbd_conf.c ****     }
 1469              		.loc 1 810 0
 1470 002c 0C4A     		ldr	r2, .L153
 1471 002e 1369     		ldr	r3, [r2, #16]
 1472 0030 23F00603 		bic	r3, r3, #6
 1473 0034 1361     		str	r3, [r2, #16]
 1474 0036 EBE7     		b	.L150
 1475              	.LVL184:
 1476              	.L149:
 817:Src/usbd_conf.c ****     USBD_LL_Suspend(hpcd->pData);
 1477              		.loc 1 817 0
 1478 0038 0268     		ldr	r2, [r0]
 1479 003a D2F8003E 		ldr	r3, [r2, #3584]
 1480 003e 43F00103 		orr	r3, r3, #1
 1481 0042 C2F8003E 		str	r3, [r2, #3584]
 818:Src/usbd_conf.c ****     
 1482              		.loc 1 818 0
 1483 0046 D0F80404 		ldr	r0, [r0, #1028]
 1484              	.LVL185:
 1485 004a FFF7FEFF 		bl	USBD_LL_Suspend
 1486              	.LVL186:
 821:Src/usbd_conf.c ****     {   
 1487              		.loc 1 821 0
 1488 004e 236A     		ldr	r3, [r4, #32]
 1489 0050 002B     		cmp	r3, #0
 1490 0052 DAD0     		beq	.L146
ARM GAS  /var/folders/k_/d4dbklhx7q1fs9lh20k9kt840000gn/T//cciJk3fn.s 			page 45


 824:Src/usbd_conf.c ****     }
 1491              		.loc 1 824 0
 1492 0054 024A     		ldr	r2, .L153
 1493 0056 1369     		ldr	r3, [r2, #16]
 1494 0058 43F00603 		orr	r3, r3, #6
 1495 005c 1361     		str	r3, [r2, #16]
 828:Src/usbd_conf.c **** 
 1496              		.loc 1 828 0
 1497 005e D4E7     		b	.L146
 1498              	.L154:
 1499              		.align	2
 1500              	.L153:
 1501 0060 00ED00E0 		.word	-536810240
 1502              		.cfi_endproc
 1503              	.LFE160:
 1505              		.section	.text.USBD_LL_Delay,"ax",%progbits
 1506              		.align	1
 1507              		.global	USBD_LL_Delay
 1508              		.syntax unified
 1509              		.thumb
 1510              		.thumb_func
 1511              		.fpu fpv4-sp-d16
 1513              	USBD_LL_Delay:
 1514              	.LFB161:
 836:Src/usbd_conf.c ****   HAL_Delay(Delay);
 1515              		.loc 1 836 0
 1516              		.cfi_startproc
 1517              		@ args = 0, pretend = 0, frame = 0
 1518              		@ frame_needed = 0, uses_anonymous_args = 0
 1519              	.LVL187:
 1520 0000 08B5     		push	{r3, lr}
 1521              	.LCFI34:
 1522              		.cfi_def_cfa_offset 8
 1523              		.cfi_offset 3, -8
 1524              		.cfi_offset 14, -4
 837:Src/usbd_conf.c **** }
 1525              		.loc 1 837 0
 1526 0002 FFF7FEFF 		bl	HAL_Delay
 1527              	.LVL188:
 838:Src/usbd_conf.c **** 
 1528              		.loc 1 838 0
 1529 0006 08BD     		pop	{r3, pc}
 1530              		.cfi_endproc
 1531              	.LFE161:
 1533              		.section	.text.USBD_static_malloc,"ax",%progbits
 1534              		.align	1
 1535              		.global	USBD_static_malloc
 1536              		.syntax unified
 1537              		.thumb
 1538              		.thumb_func
 1539              		.fpu fpv4-sp-d16
 1541              	USBD_static_malloc:
 1542              	.LFB162:
 846:Src/usbd_conf.c ****   static uint32_t mem[(sizeof(USBD_CDC_HandleTypeDef)/4)+1];/* On 32-bit boundary */
 1543              		.loc 1 846 0
 1544              		.cfi_startproc
 1545              		@ args = 0, pretend = 0, frame = 0
ARM GAS  /var/folders/k_/d4dbklhx7q1fs9lh20k9kt840000gn/T//cciJk3fn.s 			page 46


 1546              		@ frame_needed = 0, uses_anonymous_args = 0
 1547              		@ link register save eliminated.
 1548              	.LVL189:
 849:Src/usbd_conf.c **** 
 1549              		.loc 1 849 0
 1550 0000 0048     		ldr	r0, .L158
 1551              	.LVL190:
 1552 0002 7047     		bx	lr
 1553              	.L159:
 1554              		.align	2
 1555              	.L158:
 1556 0004 00000000 		.word	.LANCHOR0
 1557              		.cfi_endproc
 1558              	.LFE162:
 1560              		.section	.text.USBD_static_free,"ax",%progbits
 1561              		.align	1
 1562              		.global	USBD_static_free
 1563              		.syntax unified
 1564              		.thumb
 1565              		.thumb_func
 1566              		.fpu fpv4-sp-d16
 1568              	USBD_static_free:
 1569              	.LFB163:
 857:Src/usbd_conf.c **** 
 1570              		.loc 1 857 0
 1571              		.cfi_startproc
 1572              		@ args = 0, pretend = 0, frame = 0
 1573              		@ frame_needed = 0, uses_anonymous_args = 0
 1574              		@ link register save eliminated.
 1575              	.LVL191:
 859:Src/usbd_conf.c **** 
 1576              		.loc 1 859 0
 1577 0000 7047     		bx	lr
 1578              		.cfi_endproc
 1579              	.LFE163:
 1581              		.comm	hpcd_USB_OTG_FS,1032,4
 1582              		.section	.bss.mem.10613,"aw",%nobits
 1583              		.align	2
 1584              		.set	.LANCHOR0,. + 0
 1587              	mem.10613:
 1588 0000 00000000 		.space	544
 1588      00000000 
 1588      00000000 
 1588      00000000 
 1588      00000000 
 1589              		.text
 1590              	.Letext0:
 1591              		.file 2 "/usr/local/Cellar/gcc-arm-none-eabi/20180627/arm-none-eabi/include/machine/_default_types
 1592              		.file 3 "/usr/local/Cellar/gcc-arm-none-eabi/20180627/arm-none-eabi/include/sys/_stdint.h"
 1593              		.file 4 "Drivers/CMSIS/Include/core_cm4.h"
 1594              		.file 5 "Drivers/CMSIS/Device/ST/STM32L4xx/Include/system_stm32l4xx.h"
 1595              		.file 6 "Drivers/CMSIS/Device/ST/STM32L4xx/Include/stm32l476xx.h"
 1596              		.file 7 "Drivers/CMSIS/Device/ST/STM32L4xx/Include/stm32l4xx.h"
 1597              		.file 8 "Drivers/STM32L4xx_HAL_Driver/Inc/stm32l4xx_hal_def.h"
 1598              		.file 9 "Drivers/STM32L4xx_HAL_Driver/Inc/stm32l4xx_hal_gpio.h"
 1599              		.file 10 "Drivers/STM32L4xx_HAL_Driver/Inc/stm32l4xx_hal_dma.h"
 1600              		.file 11 "Drivers/STM32L4xx_HAL_Driver/Inc/stm32l4xx_hal_flash.h"
ARM GAS  /var/folders/k_/d4dbklhx7q1fs9lh20k9kt840000gn/T//cciJk3fn.s 			page 47


 1601              		.file 12 "Drivers/STM32L4xx_HAL_Driver/Inc/stm32l4xx_hal_uart.h"
 1602              		.file 13 "Drivers/STM32L4xx_HAL_Driver/Inc/stm32l4xx_ll_usb.h"
 1603              		.file 14 "Drivers/STM32L4xx_HAL_Driver/Inc/stm32l4xx_hal_pcd.h"
 1604              		.file 15 "Drivers/STM32L4xx_HAL_Driver/Inc/stm32l4xx_hal.h"
 1605              		.file 16 "/usr/local/Cellar/gcc-arm-none-eabi/20180627/arm-none-eabi/include/sys/lock.h"
 1606              		.file 17 "/usr/local/Cellar/gcc-arm-none-eabi/20180627/arm-none-eabi/include/sys/_types.h"
 1607              		.file 18 "/usr/local/Cellar/gcc-arm-none-eabi/20180627/lib/gcc/arm-none-eabi/7.3.1/include/stddef.
 1608              		.file 19 "/usr/local/Cellar/gcc-arm-none-eabi/20180627/arm-none-eabi/include/sys/reent.h"
 1609              		.file 20 "/usr/local/Cellar/gcc-arm-none-eabi/20180627/arm-none-eabi/include/stdlib.h"
 1610              		.file 21 "Inc/main.h"
 1611              		.file 22 "Middlewares/ST/STM32_USB_Device_Library/Core/Inc/usbd_def.h"
 1612              		.file 23 "Middlewares/ST/STM32_USB_Device_Library/Class/CDC/Inc/usbd_cdc.h"
 1613              		.file 24 "Middlewares/ST/STM32_USB_Device_Library/Core/Inc/usbd_core.h"
 1614              		.file 25 "Drivers/STM32L4xx_HAL_Driver/Inc/stm32l4xx_hal_pcd_ex.h"
 1615              		.file 26 "Drivers/STM32L4xx_HAL_Driver/Inc/stm32l4xx_hal_pwr_ex.h"
 1616              		.file 27 "Drivers/STM32L4xx_HAL_Driver/Inc/stm32l4xx_hal_cortex.h"
ARM GAS  /var/folders/k_/d4dbklhx7q1fs9lh20k9kt840000gn/T//cciJk3fn.s 			page 48

